(i__main__
Restaurant
p0
(dp1
S'NoPeople'
p2
(lp3
sS'People'
p4
(lp5
S'http://scontent-b.cdninstagram.com/hphotos-xfa1/t51.2885-15/10467730_622709111181685_1127143091_n.jpg'
p6
aS'http://scontent-b.cdninstagram.com/hphotos-xpa1/t51.2885-15/10354472_1433016080292864_59947775_n.jpg'
p7
aS'http://scontent-b.cdninstagram.com/hphotos-xap1/t51.2885-15/10311093_642165812518633_523748975_n.jpg'
p8
aS'http://scontent-a.cdninstagram.com/hphotos-xfp1/t51.2885-15/10369521_1405087243106976_878857294_n.jpg'
p9
aS'http://scontent-b.cdninstagram.com/hphotos-xpf1/t51.2885-15/10299797_862125050470415_296937917_n.jpg'
p10
aS'http://scontent-b.cdninstagram.com/hphotos-xfa1/t51.2885-15/917075_1414203472183756_1633919067_n.jpg'
p11
aS'http://scontent-b.cdninstagram.com/hphotos-xfa1/t51.2885-15/916028_278034412371974_942340209_n.jpg'
p12
aS'http://scontent-b.cdninstagram.com/hphotos-xpf1/t51.2885-15/10268782_1473380036225112_979549922_n.jpg'
p13
aS'http://scontent-a.cdninstagram.com/hphotos-xfp1/t51.2885-15/10011471_557886557659921_47021051_n.jpg'
p14
aS'http://scontent-a.cdninstagram.com/hphotos-xpa1/t51.2885-15/10249291_494534890652338_1595646122_n.jpg'
p15
aS'http://scontent-b.cdninstagram.com/hphotos-xfp1/outbound-distilleryimage11/t0.0-17/OBPTH/f3e62358b31111e38db01268a28414c7_7.jpg'
p16
aS'http://scontent-a.cdninstagram.com/hphotos-xfa1/outbound-distilleryimage2/t0.0-17/OBPTH/df969c48b31111e3a9a512a1e226fcfe_7.jpg'
p17
aS'http://scontent-a.cdninstagram.com/hphotos-xfa1/outbound-distilleryimage9/t0.0-17/OBPTH/e163776ab30911e3bc1b0e560c5e4f79_7.jpg'
p18
aS'http://scontent-a.cdninstagram.com/hphotos-xpa1/outbound-distilleryimage0/t0.0-17/OBPTH/8f635188b30411e3b67e0e5d8cd45880_7.jpg'
p19
aS'http://scontent-b.cdninstagram.com/hphotos-xap1/outbound-distilleryimage11/t0.0-17/OBPTH/5c1d73a6b30111e3839b0e9365a5d0af_8.jpg'
p20
aS'http://scontent-a.cdninstagram.com/hphotos-xpa1/outbound-distilleryimage7/t0.0-17/OBPTH/b51fbf7aad3111e3a744126758c35937_8.jpg'
p21
aS'http://scontent-b.cdninstagram.com/hphotos-xfp1/outbound-distilleryimage8/t0.0-17/OBPTH/56eb48eeacc211e3891512aaa58e1840_8.jpg'
p22
aS'http://scontent-b.cdninstagram.com/hphotos-xfp1/outbound-distilleryimage7/t0.0-17/OBPTH/e4f1c86aa80e11e3825e12d74921a67b_8.jpg'
p23
aS'http://scontent-a.cdninstagram.com/hphotos-xaf1/outbound-distilleryimage3/t0.0-17/OBPTH/3532e6f4a7fd11e3916c120c289588fb_8.jpg'
p24
aS'http://scontent-a.cdninstagram.com/hphotos-xaf1/outbound-distilleryimage5/t0.0-17/OBPTH/0d474b9aa75711e381dd1273149d0f6d_8.jpg'
p25
aS'http://scontent-b.cdninstagram.com/hphotos-xap1/outbound-distilleryimage10/t0.0-17/OBPTH/0bfaa000a74f11e391f11213f82c8bd2_8.jpg'
p26
aS'http://scontent-a.cdninstagram.com/hphotos-xpa1/outbound-distilleryimage1/t0.0-17/OBPTH/842f725aa5b311e3843012662e784cb1_8.jpg'
p27
aS'http://scontent-b.cdninstagram.com/hphotos-xfa1/t51.2885-15/1739860_1406793926245035_2032775790_n.jpg'
p28
aS'http://scontent-b.cdninstagram.com/hphotos-xaf1/t51.2885-15/1971468_288775714612628_862752462_n.jpg'
p29
aS'http://scontent-a.cdninstagram.com/hphotos-xpf1/t51.2885-15/1889359_1493351677558582_1325361101_n.jpg'
p30
aS'http://scontent-a.cdninstagram.com/hphotos-xpf1/t51.2885-15/1599957_467764319992378_631870376_n.jpg'
p31
asS'Food'
p32
(lp33
S'http://scontent-a.cdninstagram.com/hphotos-xfa1/t51.2885-15/10453965_653438938069410_1112290684_n.jpg'
p34
aS'http://scontent-a.cdninstagram.com/hphotos-xpa1/t51.2885-15/10354455_247711168763796_143297479_n.jpg'
p35
aS'http://scontent-b.cdninstagram.com/hphotos-xpa1/t51.2885-15/10358413_660575564008941_2091021288_n.jpg'
p36
aS'http://scontent-b.cdninstagram.com/hphotos-xpf1/t51.2885-15/10268783_813278962035187_1824175340_n.jpg'
p37
aS'http://scontent-b.cdninstagram.com/hphotos-xpf1/t51.2885-15/10254155_1432167177031915_1542653931_n.jpg'
p38
aS'http://scontent-a.cdninstagram.com/hphotos-xpa1/t51.2885-15/10246022_654334901269594_1905523945_n.jpg'
p39
aS'http://scontent-a.cdninstagram.com/hphotos-xap1/t51.2885-15/10249359_710519078989558_848416041_n.jpg'
p40
aS'http://scontent-a.cdninstagram.com/hphotos-xfa1/t51.2885-15/10249283_1499513003603100_1046170324_n.jpg'
p41
aS'http://scontent-b.cdninstagram.com/hphotos-xaf1/t51.2885-15/914343_1438807846360932_1771713503_n.jpg'
p42
aS'http://scontent-a.cdninstagram.com/hphotos-xpa1/t51.2885-15/1169270_482461091880216_2109228689_n.jpg'
p43
aS'http://scontent-a.cdninstagram.com/hphotos-xap1/t51.2885-15/1941164_762157917147775_2067659898_n.jpg'
p44
aS'http://scontent-a.cdninstagram.com/hphotos-xpf1/t51.2885-15/10005509_489945394465164_797340445_n.jpg'
p45
aS'http://scontent-a.cdninstagram.com/hphotos-xap1/t51.2885-15/1170315_617617151661052_299825664_n.jpg'
p46
aS'http://scontent-b.cdninstagram.com/hphotos-xap1/t51.2885-15/10005453_300851713405936_1802684021_n.jpg'
p47
aS'http://scontent-a.cdninstagram.com/hphotos-xap1/t51.2885-15/929301_464646847000762_698516249_n.jpg'
p48
aS'http://scontent-b.cdninstagram.com/hphotos-xpf1/t51.2885-15/10246183_539946966121332_928629711_n.jpg'
p49
aS'http://scontent-a.cdninstagram.com/hphotos-xap1/t51.2885-15/10175403_287056974786100_473728214_n.jpg'
p50
aS'http://scontent-a.cdninstagram.com/hphotos-xap1/t51.2885-15/10011201_444265899041034_1701124963_n.jpg'
p51
aS'http://scontent-b.cdninstagram.com/hphotos-xfa1/t51.2885-15/10005545_289384117883670_1087560318_n.jpg'
p52
aS'http://scontent-b.cdninstagram.com/hphotos-xfp1/t51.2885-15/10004223_259673574212363_499860491_n.jpg'
p53
aS'http://scontent-a.cdninstagram.com/hphotos-xpf1/t51.2885-15/1515935_720147298026875_1513044756_n.jpg'
p54
aS'http://scontent-b.cdninstagram.com/hphotos-xap1/t51.2885-15/1660692_278882742280801_2094579402_n.jpg'
p55
aS'http://scontent-a.cdninstagram.com/hphotos-xpf1/t51.2885-15/1527712_367402550064364_220172907_n.jpg'
p56
aS'http://scontent-b.cdninstagram.com/hphotos-xap1/outbound-distilleryimage1/t0.0-17/OBPTH/20d22ba0b3d511e398b012e59be6eff1_8.jpg'
p57
aS'http://scontent-a.cdninstagram.com/hphotos-xpa1/outbound-distilleryimage5/t0.0-17/OBPTH/3f1c3d0eb30711e3b9d6128aa754a4ad_7.jpg'
p58
aS'http://scontent-a.cdninstagram.com/hphotos-xfa1/outbound-distilleryimage5/t0.0-17/OBPTH/b96d6278b2c011e380301215423c68e1_8.jpg'
p59
aS'http://scontent-a.cdninstagram.com/hphotos-xpa1/outbound-distilleryimage3/t0.0-17/OBPTH/1fb37854b2be11e384a0124609a1fc77_8.jpg'
p60
aS'http://scontent-b.cdninstagram.com/hphotos-xap1/outbound-distilleryimage4/t0.0-17/OBPTH/905cfa0eb2bd11e397fb0eaf6d89903c_8.jpg'
p61
aS'http://scontent-b.cdninstagram.com/hphotos-xap1/outbound-distilleryimage11/t0.0-17/OBPTH/56460a8cb23f11e3b9ce0e5567fabcc7_8.jpg'
p62
aS'http://scontent-b.cdninstagram.com/hphotos-xfp1/outbound-distilleryimage5/t0.0-17/OBPTH/44738f10ae6011e38d850ea5c7fe25ed_8.jpg'
p63
aS'http://scontent-b.cdninstagram.com/hphotos-xfp1/outbound-distilleryimage9/t0.0-17/OBPTH/e9b5f222ae4e11e3ad2d121895eb7b09_8.jpg'
p64
aS'http://scontent-b.cdninstagram.com/hphotos-xpf1/outbound-distilleryimage11/t0.0-17/OBPTH/6eb38bc0ae3f11e39dc4120cf9a4763f_8.jpg'
p65
aS'http://scontent-b.cdninstagram.com/hphotos-xap1/outbound-distilleryimage8/t0.0-17/OBPTH/60edc418acc511e3a8e412e372a40b90_8.jpg'
p66
aS'http://scontent-b.cdninstagram.com/hphotos-xap1/outbound-distilleryimage11/t0.0-17/OBPTH/0925b00eab1e11e390b212a4533baa47_8.jpg'
p67
aS'http://scontent-b.cdninstagram.com/hphotos-xfp1/outbound-distilleryimage5/t0.0-17/OBPTH/d9757e62a8d811e3b1ac0ebfbcba2f55_8.jpg'
p68
aS'http://scontent-a.cdninstagram.com/hphotos-xaf1/outbound-distilleryimage3/t0.0-17/OBPTH/bf477ff4a8d811e3a9f012ad4d8b6503_8.jpg'
p69
aS'http://scontent-a.cdninstagram.com/hphotos-xfa1/outbound-distilleryimage8/t0.0-17/OBPTH/4bd03f82a81211e3bf1e1259de3fdb70_8.jpg'
p70
aS'http://scontent-b.cdninstagram.com/hphotos-xap1/outbound-distilleryimage9/t0.0-17/OBPTH/fd5cc622a81111e3b28012d40f8b39a1_8.jpg'
p71
aS'http://scontent-a.cdninstagram.com/hphotos-xpa1/outbound-distilleryimage1/t0.0-17/OBPTH/040bb258a7cc11e390231246c9b0a4e5_8.jpg'
p72
aS'http://scontent-b.cdninstagram.com/hphotos-xfp1/outbound-distilleryimage1/t0.0-17/OBPTH/5b884ae0a7b411e394490e427cf85841_8.jpg'
p73
aS'http://scontent-b.cdninstagram.com/hphotos-xpf1/outbound-distilleryimage6/t0.0-17/OBPTH/974d50daa74011e3a58e1245e04f45c6_8.jpg'
p74
aS'http://scontent-a.cdninstagram.com/hphotos-xaf1/outbound-distilleryimage1/t0.0-17/OBPTH/32c5bbf0a5b211e3aac1129d04388bcd_8.jpg'
p75
aS'http://scontent-a.cdninstagram.com/hphotos-xaf1/outbound-distilleryimage3/t0.0-17/OBPTH/40f84030a5a311e390610e1acc8eda8b_8.jpg'
p76
aS'http://scontent-b.cdninstagram.com/hphotos-xap1/outbound-distilleryimage4/t0.0-17/OBPTH/16c8691ca24b11e3bcff12146f0bebf4_8.jpg'
p77
aS'http://scontent-b.cdninstagram.com/hphotos-xfp1/t51.2885-15/1971529_211396445735155_1375679391_n.jpg'
p78
aS'http://scontent-a.cdninstagram.com/hphotos-xfp1/t51.2885-15/1971619_1540915886133584_1726548350_n.jpg'
p79
aS'http://scontent-a.cdninstagram.com/hphotos-xap1/t51.2885-15/1963029_440416662757857_878980224_n.jpg'
p80
aS'http://scontent-a.cdninstagram.com/hphotos-xfa1/t51.2885-15/1971502_213305332197882_553771184_n.jpg'
p81
aS'http://scontent-a.cdninstagram.com/hphotos-xaf1/t51.2885-15/1739328_235077150026430_465549419_n.jpg'
p82
aS'http://scontent-b.cdninstagram.com/hphotos-xaf1/t51.2885-15/1963166_774665189212209_378447888_n.jpg'
p83
aS'http://scontent-b.cdninstagram.com/hphotos-xpa1/t51.2885-15/1740053_586879794733984_1057886085_n.jpg'
p84
aS'http://scontent-b.cdninstagram.com/hphotos-xfp1/t51.2885-15/1799827_703382529714306_976489040_n.jpg'
p85
aS'http://scontent-a.cdninstagram.com/hphotos-xap1/t51.2885-15/927255_822105077815501_549301006_n.jpg'
p86
aS'http://scontent-b.cdninstagram.com/hphotos-xap1/t51.2885-15/1740351_244834075699065_1909237967_n.jpg'
p87
aS'http://scontent-b.cdninstagram.com/hphotos-xaf1/t51.2885-15/1723878_269370476560346_2062033545_n.jpg'
p88
aS'http://scontent-b.cdninstagram.com/hphotos-xap1/t51.2885-15/1741300_664136646984607_1843430136_n.jpg'
p89
aS'http://scontent-b.cdninstagram.com/hphotos-xpa1/t51.2885-15/1799574_1422940087948359_1444835570_n.jpg'
p90
aS'http://scontent-a.cdninstagram.com/hphotos-xfp1/t51.2885-15/1922431_415507058594724_338951612_n.jpg'
p91
aS'http://scontent-b.cdninstagram.com/hphotos-xfa1/t51.2885-15/1740910_346716152135837_1546736220_n.jpg'
p92
aS'http://scontent-b.cdninstagram.com/hphotos-xpf1/t51.2885-15/1599935_220007091523989_1721432141_n.jpg'
p93
asS'foursquareID'
p94
S'4a0474bcf964a520fd711fe3'
p95
sS'Reject'
p96
(lp97
S'http://scontent-a.cdninstagram.com/hphotos-xfp1/t51.2885-15/10424496_536400079800074_1992340161_n.jpg'
p98
aS'http://scontent-b.cdninstagram.com/hphotos-prn/t51.2885-15/929091_298610556973265_1179131632_n.jpg'
p99
aS'http://scontent-a.cdninstagram.com/hphotos-xfa1/t51.2885-15/914681_470033889795968_1668750206_n.jpg'
p100
aS'http://scontent-b.cdninstagram.com/hphotos-xpf1/t51.2885-15/10251551_610657015685889_931761446_n.jpg'
p101
aS'http://scontent-b.cdninstagram.com/hphotos-xpa1/t51.2885-15/925222_393892457417786_1250480612_n.jpg'
p102
aS'http://scontent-b.cdninstagram.com/hphotos-xpf1/t51.2885-15/10261259_292221840902610_1599464637_n.jpg'
p103
aS'http://scontent-b.cdninstagram.com/hphotos-xpa1/t51.2885-15/1517090_492840680842794_8740824_n.jpg'
p104
aS'http://scontent-b.cdninstagram.com/hphotos-xpa1/t51.2885-15/10249160_1411846305746884_814443746_n.jpg'
p105
aS'http://scontent-a.cdninstagram.com/hphotos-xpa1/t51.2885-15/927254_208384399371330_1406811299_n.jpg'
p106
aS'http://scontent-a.cdninstagram.com/hphotos-xpf1/t51.2885-15/10261232_839203872761860_336623379_n.jpg'
p107
aS'http://scontent-b.cdninstagram.com/hphotos-xaf1/t51.2885-15/915552_1382121525401462_234295518_n.jpg'
p108
aS'http://scontent-a.cdninstagram.com/hphotos-xfp1/t51.2885-15/1941037_590227787739292_1297514977_n.jpg'
p109
aS'http://scontent-a.cdninstagram.com/hphotos-xaf1/t51.2885-15/917493_539606349485239_357779008_n.jpg'
p110
aS'http://scontent-b.cdninstagram.com/hphotos-xfp1/t51.2885-15/10009783_210698765806591_259755399_n.jpg'
p111
aS'http://scontent-a.cdninstagram.com/hphotos-xpa1/t51.2885-15/1662321_1389399857951636_1233315257_n.jpg'
p112
aS'http://scontent-a.cdninstagram.com/hphotos-xfp1/t51.2885-15/10013034_265876866920474_43502333_n.jpg'
p113
aS'http://scontent-a.cdninstagram.com/hphotos-xfp1/t51.2885-15/1739513_722985081087281_1711168793_n.jpg'
p114
aS'http://scontent-b.cdninstagram.com/hphotos-xap1/t51.2885-15/1389474_1403756236560619_67028662_n.jpg'
p115
aS'http://scontent-b.cdninstagram.com/hphotos-xap1/outbound-distilleryimage9/t0.0-17/OBPTH/baf81822b3e211e3a81f12784011d369_8.jpg'
p116
aS'http://scontent-a.cdninstagram.com/hphotos-xfa1/outbound-distilleryimage5/t0.0-17/OBPTH/f6647396b3c011e393fd126b6da80671_8.jpg'
p117
aS'http://scontent-a.cdninstagram.com/hphotos-xpa1/outbound-distilleryimage1/t0.0-17/OBPTH/39c49410b3bf11e39064124886632531_8.jpg'
p118
aS'http://scontent-a.cdninstagram.com/hphotos-xfa1/outbound-distilleryimage0/t0.0-17/OBPTH/e12d99f8b32511e387d60e2e8d5fc624_8.jpg'
p119
aS'http://scontent-a.cdninstagram.com/hphotos-xpa1/outbound-distilleryimage9/t0.0-17/OBPTH/67a170fab32511e3b0d90e7dda01b3a5_8.jpg'
p120
aS'http://scontent-a.cdninstagram.com/hphotos-xaf1/outbound-distilleryimage4/t0.0-17/OBPTH/025bf16cb31511e396a9120dbd1fdc74_7.jpg'
p121
aS'http://scontent-a.cdninstagram.com/hphotos-xaf1/outbound-distilleryimage9/t0.0-17/OBPTH/de084b26b31411e3b90c1211b6281a69_7.jpg'
p122
aS'http://scontent-a.cdninstagram.com/hphotos-xpa1/outbound-distilleryimage7/t0.0-17/OBPTH/982f8180b31111e38aa1125559adfe5f_7.jpg'
p123
aS'http://scontent-b.cdninstagram.com/hphotos-xpf1/outbound-distilleryimage6/t0.0-17/OBPTH/ee33d922b30d11e3985f0e47fb3a0096_7.jpg'
p124
aS'http://scontent-b.cdninstagram.com/hphotos-xpf1/outbound-distilleryimage4/t0.0-17/OBPTH/baf458c2b30611e38b20124d02dddc8c_7.jpg'
p125
aS'http://scontent-a.cdninstagram.com/hphotos-xfa1/outbound-distilleryimage6/t0.0-17/OBPTH/5aaa3a2eb30411e38ea20e70ef7cb86e_7.jpg'
p126
aS'http://scontent-a.cdninstagram.com/hphotos-xfa1/outbound-distilleryimage7/t0.0-17/OBPTH/7e6616ecb30211e391771281c39a7fe7_7.jpg'
p127
aS'http://scontent-a.cdninstagram.com/hphotos-xpa1/outbound-distilleryimage4/t0.0-17/OBPTH/42f57424b2d311e3aef612141806e92c_8.jpg'
p128
aS'http://scontent-a.cdninstagram.com/hphotos-xfa1/outbound-distilleryimage2/t0.0-17/OBPTH/381087a6b2b511e3b97812add123cffe_8.jpg'
p129
aS'http://scontent-b.cdninstagram.com/hphotos-xpf1/outbound-distilleryimage8/t0.0-17/OBPTH/5944dc7eb25611e3b9f2120cbb90aa70_8.jpg'
p130
aS'http://scontent-a.cdninstagram.com/hphotos-xfa1/outbound-distilleryimage6/t0.0-17/OBPTH/50a2c0d6ae5f11e3b891124c17d941be_8.jpg'
p131
aS'http://scontent-b.cdninstagram.com/hphotos-xap1/outbound-distilleryimage0/t0.0-17/OBPTH/e8da3e84ae5e11e3907c1296586a1d24_8.jpg'
p132
aS'http://scontent-b.cdninstagram.com/hphotos-xfp1/outbound-distilleryimage9/t0.0-17/OBPTH/2074a70ead9111e394b3123e087b8285_8.jpg'
p133
aS'http://scontent-b.cdninstagram.com/hphotos-xpf1/outbound-distilleryimage8/t0.0-17/OBPTH/e21afce6ad1e11e387c70e1e2ad519ec_8.jpg'
p134
aS'http://scontent-a.cdninstagram.com/hphotos-xaf1/outbound-distilleryimage5/t0.0-17/OBPTH/e76f56aaabf811e3934512125f563021_8.jpg'
p135
aS'http://scontent-b.cdninstagram.com/hphotos-xap1/outbound-distilleryimage0/t0.0-17/OBPTH/45544d42abf511e3b8681269cae230a4_8.jpg'
p136
aS'http://scontent-b.cdninstagram.com/hphotos-xap1/outbound-distilleryimage3/t0.0-17/OBPTH/bedb6158ab1611e3b523122a12c5375b_8.jpg'
p137
aS'http://scontent-a.cdninstagram.com/hphotos-xpa1/outbound-distilleryimage6/t0.0-17/OBPTH/fe7b1d3aa80a11e3b1a712eaeed9ec7a_8.jpg'
p138
aS'http://scontent-b.cdninstagram.com/hphotos-xfp1/outbound-distilleryimage7/t0.0-17/OBPTH/b4281198a7b011e3a8e71286ad01131b_8.jpg'
p139
aS'http://scontent-b.cdninstagram.com/hphotos-xfp1/outbound-distilleryimage3/t0.0-17/OBPTH/12e21ac8a75511e3935f12621337951f_8.jpg'
p140
aS'http://scontent-a.cdninstagram.com/hphotos-xaf1/outbound-distilleryimage6/t0.0-17/OBPTH/a8d1e2e4a73111e3bd420e7d1f211926_8.jpg'
p141
aS'http://scontent-a.cdninstagram.com/hphotos-xaf1/outbound-distilleryimage10/t0.0-17/OBPTH/ff61d27ca5b511e3adef12032c844146_7.jpg'
p142
aS'http://scontent-b.cdninstagram.com/hphotos-xap1/outbound-distilleryimage4/t0.0-17/OBPTH/94e0c00ca3b711e38e6512353404eac4_8.jpg'
p143
aS'http://scontent-b.cdninstagram.com/hphotos-xpf1/outbound-distilleryimage2/t0.0-17/OBPTH/a4f9b33aa23c11e3b35c0e258272326a_8.jpg'
p144
aS'http://scontent-b.cdninstagram.com/hphotos-xfp1/outbound-distilleryimage2/t0.0-17/OBPTH/cddf4252a16911e389aa0e632b3228b2_8.jpg'
p145
aS'http://scontent-a.cdninstagram.com/hphotos-xfa1/outbound-distilleryimage4/t0.0-17/OBPTH/ec6df696a10011e3a4fd12ff9ce2b280_8.jpg'
p146
aS'http://scontent-b.cdninstagram.com/hphotos-xfp1/t51.2885-15/1171821_1427577637482122_158170527_n.jpg'
p147
ag79
aS'http://scontent-a.cdninstagram.com/hphotos-xpa1/t51.2885-15/1515140_659413750781431_1111685408_n.jpg'
p148
aS'http://scontent-b.cdninstagram.com/hphotos-xfa1/t51.2885-15/915518_703397653014696_2147310843_n.jpg'
p149
aS'http://scontent-b.cdninstagram.com/hphotos-xfp1/t51.2885-15/1741195_291922127627734_445515455_n.jpg'
p150
aS'http://scontent-a.cdninstagram.com/hphotos-xaf1/t51.2885-15/1738948_301621689992057_531885757_n.jpg'
p151
aS'http://scontent-b.cdninstagram.com/hphotos-xaf1/t51.2885-15/1971348_284685628354997_1092612232_n.jpg'
p152
aS'http://scontent-a.cdninstagram.com/hphotos-xpa1/t51.2885-15/1740123_400391373439222_1812119911_n.jpg'
p153
ag29
aS'http://scontent-a.cdninstagram.com/hphotos-xfa1/t51.2885-15/1962946_775498699144443_385363576_n.jpg'
p154
aS'http://scontent-a.cdninstagram.com/hphotos-xfp1/t51.2885-15/1662871_254551608039889_609097137_n.jpg'
p155
aS'http://scontent-a.cdninstagram.com/hphotos-xap1/t51.2885-15/1723215_211471422382019_115261995_n.jpg'
p156
aS'http://scontent-a.cdninstagram.com/hphotos-xap1/t51.2885-15/1941207_290852427733408_1185000541_n.jpg'
p157
aS'http://scontent-a.cdninstagram.com/hphotos-xpf1/t51.2885-15/1962893_1401396136787047_845755921_n.jpg'
p158
aS'http://scontent-a.cdninstagram.com/hphotos-xpa1/t51.2885-15/1738700_615608941845403_610364190_n.jpg'
p159
aS'http://scontent-a.cdninstagram.com/hphotos-xpf1/t51.2885-15/1599935_266949930134958_167197732_n.jpg'
p160
aS'http://scontent-a.cdninstagram.com/hphotos-xpa1/t51.2885-15/928166_666823916717558_1624127409_n.jpg'
p161
asS'urlList'
p162
(lp163
g6
ag98
ag34
ag7
ag35
ag99
ag8
ag9
ag36
ag100
ag10
ag101
ag102
ag11
ag37
ag38
ag39
ag40
ag41
ag12
ag13
ag103
ag42
ag104
ag43
ag105
ag44
ag106
ag45
ag107
ag46
ag47
ag48
ag49
ag50
ag14
ag15
ag108
ag51
ag52
ag53
ag109
ag54
ag110
ag111
ag112
ag55
ag56
ag113
ag114
ag115
ag116
ag57
ag117
ag118
ag119
ag120
ag121
ag122
ag16
ag17
ag123
ag124
ag18
ag58
ag125
ag19
ag126
ag127
ag20
ag128
ag59
ag60
ag61
ag129
ag130
ag62
ag63
ag131
ag132
ag64
ag65
ag133
ag21
ag134
ag66
ag22
ag135
ag136
ag67
ag137
ag68
ag69
ag70
ag71
ag23
ag138
ag24
ag72
ag73
ag139
ag25
ag140
ag26
ag74
ag141
ag142
ag27
ag75
ag76
ag143
ag77
ag144
ag145
ag146
ag147
ag78
ag28
ag79
ag148
ag80
ag149
ag150
ag151
ag152
ag81
ag153
ag29
ag82
ag83
ag84
ag30
ag85
ag154
ag86
ag155
ag156
ag157
ag87
ag158
ag159
ag160
ag31
ag161
ag88
ag89
ag90
ag91
ag92
ag93
asS'Blurry'
p164
(lp165
sb.