(i__main__
Restaurant
p0
(dp1
S'NoPeople'
p2
(lp3
sS'People'
p4
(lp5
S'http://scontent-b.cdninstagram.com/hphotos-xfp1/t51.2885-15/10549659_688816454500257_843669703_n.jpg'
p6
aS'http://scontent-b.cdninstagram.com/hphotos-xap1/t51.2885-15/923994_566241006826463_1843667141_n.jpg'
p7
aS'http://scontent-a.cdninstagram.com/hphotos-xpa1/t51.2885-15/10387985_326125264203811_1670312169_n.jpg'
p8
aS'http://scontent-a.cdninstagram.com/hphotos-xpa1/t51.2885-15/10449092_588786404552278_936544894_n.jpg'
p9
aS'http://scontent-a.cdninstagram.com/hphotos-xap1/t51.2885-15/927052_1452776148302655_1839397649_n.jpg'
p10
aS'http://scontent-b.cdninstagram.com/hphotos-xap1/l/t51.2885-15/10296738_284242945070768_1969933122_n.jpg'
p11
aS'http://scontent-b.cdninstagram.com/hphotos-xfp1/t51.2885-15/10311129_289305817899012_136052159_n.jpg'
p12
aS'http://scontent-b.cdninstagram.com/hphotos-xpf1/t51.2885-15/10249139_514570821982210_254408335_n.jpg'
p13
ag13
aS'http://scontent-b.cdninstagram.com/hphotos-xfp1/t51.2885-15/10261256_666472286722894_778765941_n.jpg'
p14
aS'http://scontent-b.cdninstagram.com/hphotos-xfp1/t51.2885-15/10261256_517320961706055_523975150_n.jpg'
p15
aS'http://scontent-a.cdninstagram.com/hphotos-prn/t51.2885-15/10261085_1387229958225013_1766992233_n.jpg'
p16
aS'http://scontent-b.cdninstagram.com/hphotos-xap1/t51.2885-15/10175391_769876543030037_121607669_n.jpg'
p17
aS'http://scontent-a.cdninstagram.com/hphotos-xap1/t51.2885-15/929292_618307641588609_436424408_n.jpg'
p18
aS'http://scontent-b.cdninstagram.com/hphotos-xap1/t51.2885-15/10012608_1436983043211143_675453845_n.jpg'
p19
aS'http://scontent-a.cdninstagram.com/hphotos-xpa1/t51.2885-15/10005488_492641510859298_546121857_n.jpg'
p20
aS'http://scontent-b.cdninstagram.com/hphotos-xap1/t51.2885-15/1172233_217570351775501_1042441461_n.jpg'
p21
aS'http://scontent-b.cdninstagram.com/hphotos-xaf1/t51.2885-15/10013058_230547120485199_1284295809_n.jpg'
p22
aS'http://scontent-a.cdninstagram.com/hphotos-xpf1/t51.2885-15/10011256_1465209780376061_1309868681_n.jpg'
p23
aS'http://scontent-b.cdninstagram.com/hphotos-xpf1/t51.2885-15/10005593_274428366063717_1041994956_n.jpg'
p24
aS'http://scontent-a.cdninstagram.com/hphotos-xfp1/t51.2885-15/10005169_267681150073531_218397680_n.jpg'
p25
aS'http://scontent-b.cdninstagram.com/hphotos-xpa1/t51.2885-15/1172030_301985346620359_392389168_n.jpg'
p26
aS'http://scontent-b.cdninstagram.com/hphotos-xpa1/t51.2885-15/1516012_236539699866537_1134021320_n.jpg'
p27
aS'http://scontent-a.cdninstagram.com/hphotos-xaf1/outbound-distilleryimage9/t0.0-17/OBPTH/ddb64ad0b30811e38c8012bf74679159_8.jpg'
p28
aS'http://scontent-b.cdninstagram.com/hphotos-xap1/outbound-distilleryimage11/t0.0-17/OBPTH/9a924524ad9f11e3aba81226014e1ecb_8.jpg'
p29
aS'http://scontent-a.cdninstagram.com/hphotos-xpa1/outbound-distilleryimage11/t0.0-17/OBPTH/88f774fead9211e39ec7124353f46c6b_8.jpg'
p30
aS'http://scontent-b.cdninstagram.com/hphotos-xpf1/outbound-distilleryimage8/t0.0-17/OBPTH/414343d8ad7711e38f8812791ae4623c_8.jpg'
p31
aS'http://scontent-a.cdninstagram.com/hphotos-xfa1/outbound-distilleryimage11/t0.0-17/OBPTH/249cb84aad7711e3affa12769b9f7a8f_8.jpg'
p32
aS'http://scontent-b.cdninstagram.com/hphotos-xfp1/outbound-distilleryimage2/t0.0-17/OBPTH/00742966acb511e38add1240bd2c384e_8.jpg'
p33
aS'http://scontent-b.cdninstagram.com/hphotos-xfp1/outbound-distilleryimage9/t0.0-17/OBPTH/72cc7236ac6811e392b612226b75f0b5_8.jpg'
p34
aS'http://scontent-a.cdninstagram.com/hphotos-xaf1/outbound-distilleryimage0/t0.0-17/OBPTH/c92c73bca80111e3b23d0e73c177bda8_8.jpg'
p35
aS'http://scontent-b.cdninstagram.com/hphotos-xfp1/outbound-distilleryimage0/t0.0-17/OBPTH/24ba7d8ea68911e3bbf50e7e7eef1a38_8.jpg'
p36
aS'http://scontent-a.cdninstagram.com/hphotos-xaf1/outbound-distilleryimage3/t0.0-17/OBPTH/29d27deea58011e3a7690e6f7c295c2b_8.jpg'
p37
aS'http://scontent-b.cdninstagram.com/hphotos-xap1/outbound-distilleryimage10/t0.0-17/OBPTH/94ba04eaa55f11e3acbe12888ece96fe_8.jpg'
p38
aS'http://scontent-b.cdninstagram.com/hphotos-xpf1/outbound-distilleryimage6/t0.0-17/OBPTH/2d6235a6a3de11e3a801121e0f202bd6_8.jpg'
p39
aS'http://scontent-b.cdninstagram.com/hphotos-xap1/outbound-distilleryimage9/t0.0-17/OBPTH/80f1890ea1dd11e3b70d0e419024fb7d_8.jpg'
p40
aS'http://scontent-a.cdninstagram.com/hphotos-xpa1/outbound-distilleryimage6/t0.0-17/OBPTH/73706c22a1d411e3b3a81282a24eee66_8.jpg'
p41
aS'http://scontent-a.cdninstagram.com/hphotos-xfa1/outbound-distilleryimage6/t0.0-17/OBPTH/7480c9baa1b911e3989212e9248681d6_8.jpg'
p42
aS'http://scontent-b.cdninstagram.com/hphotos-xpf1/outbound-distilleryimage0/t0.0-17/OBPTH/8d41a614a10911e39afc122e3f5a0d70_8.jpg'
p43
aS'http://scontent-a.cdninstagram.com/hphotos-xfa1/t51.2885-15/1941232_1400200100240977_424112394_n.jpg'
p44
aS'http://scontent-a.cdninstagram.com/hphotos-xpa1/t51.2885-15/924893_646106578770669_1568303105_n.jpg'
p45
aS'http://scontent-a.cdninstagram.com/hphotos-xfa1/t51.2885-15/1725322_467500733377075_1643175736_n.jpg'
p46
aS'http://scontent-b.cdninstagram.com/hphotos-xfa1/t51.2885-15/917471_1467287546820276_1173214483_n.jpg'
p47
aS'http://scontent-b.cdninstagram.com/hphotos-xpa1/t51.2885-15/928453_802306073130384_1281437778_n.jpg'
p48
aS'http://scontent-a.cdninstagram.com/hphotos-xaf1/t51.2885-15/1889356_1474575426096664_1431052067_n.jpg'
p49
aS'http://scontent-a.cdninstagram.com/hphotos-xaf1/outbound-distilleryimage8/t0.0-17/OBPTH/a439cf98991811e3bd7112f52e1c24e4_8.jpg'
p50
aS'http://scontent-a.cdninstagram.com/hphotos-xap1/t51.2885-15/1723647_589128307844923_807201838_n.jpg'
p51
aS'http://scontent-b.cdninstagram.com/hphotos-xap1/t51.2885-15/928161_564771086951666_389661260_n.jpg'
p52
aS'http://scontent-b.cdninstagram.com/hphotos-xaf1/t51.2885-15/1738308_532991250147782_1295581178_n.jpg'
p53
aS'http://scontent-a.cdninstagram.com/hphotos-xfa1/t51.2885-15/1922188_624559274282027_939586619_n.jpg'
p54
aS'http://scontent-a.cdninstagram.com/hphotos-xap1/t51.2885-15/1738749_1460956047466564_1736986654_n.jpg'
p55
aS'http://scontent-a.cdninstagram.com/hphotos-xfp1/t51.2885-15/1740271_1464913567055422_1099242997_n.jpg'
p56
aS'http://scontent-b.cdninstagram.com/hphotos-xpa1/t51.2885-15/1530610_424056714393060_418926143_n.jpg'
p57
aS'http://scontent-b.cdninstagram.com/hphotos-xpa1/t51.2885-15/925771_278525875630256_633315142_n.jpg'
p58
asS'Food'
p59
(lp60
S'http://scontent-a.cdninstagram.com/hphotos-xap1/t51.2885-15/926223_1459414544302659_1736040419_n.jpg'
p61
aS'http://scontent-b.cdninstagram.com/hphotos-xfa1/t51.2885-15/10387774_709657845747651_205815474_n.jpg'
p62
aS'http://scontent-b.cdninstagram.com/hphotos-xfa1/t51.2885-15/10311190_729952993727619_11677244_n.jpg'
p63
aS'http://scontent-a.cdninstagram.com/hphotos-xpf1/t51.2885-15/10401635_316839445132210_1230675604_n.jpg'
p64
aS'http://scontent-b.cdninstagram.com/hphotos-xpf1/t51.2885-15/10401587_241088509421357_544043911_n.jpg'
p65
aS'http://scontent-a.cdninstagram.com/hphotos-xpf1/t51.2885-15/10354339_1501470993405718_1968768580_n.jpg'
p66
aS'http://scontent-b.cdninstagram.com/hphotos-xpf1/t51.2885-15/10261271_257622001106870_105456654_n.jpg'
p67
aS'http://scontent-a.cdninstagram.com/hphotos-xpa1/t51.2885-15/927281_670379599693878_2140739751_n.jpg'
p68
aS'http://scontent-a.cdninstagram.com/hphotos-xpa1/t51.2885-15/10175126_621457327922449_163137656_n.jpg'
p69
aS'http://scontent-a.cdninstagram.com/hphotos-xap1/t51.2885-15/926415_1386784881603492_777322454_n.jpg'
p70
aS'http://scontent-a.cdninstagram.com/hphotos-xpf1/t51.2885-15/10249114_636896789713126_741069038_n.jpg'
p71
aS'http://scontent-a.cdninstagram.com/hphotos-xfp1/t51.2885-15/10175231_726628277369479_199521165_n.jpg'
p72
aS'http://scontent-b.cdninstagram.com/hphotos-xpf1/t51.2885-15/10005176_687478997958053_37028527_n.jpg'
p73
aS'http://scontent-a.cdninstagram.com/hphotos-xpa1/t51.2885-15/1538377_679743032064910_1536901567_n.jpg'
p74
aS'http://scontent-b.cdninstagram.com/hphotos-xpf1/t51.2885-15/1530844_467221393406262_1913848068_n.jpg'
p75
aS'http://scontent-a.cdninstagram.com/hphotos-xfa1/t51.2885-15/916439_1407982472798974_1571269556_n.jpg'
p76
aS'http://scontent-b.cdninstagram.com/hphotos-xpa1/t51.2885-15/10012523_1409162462679760_393341326_n.jpg'
p77
aS'http://scontent-b.cdninstagram.com/hphotos-xap1/outbound-distilleryimage8/t0.0-17/OBPTH/15017b16b4a011e38c580e7be18a9944_7.jpg'
p78
aS'http://scontent-a.cdninstagram.com/hphotos-xpa1/outbound-distilleryimage7/t0.0-17/OBPTH/26dacf80b46011e3bbc612a400ee52df_8.jpg'
p79
aS'http://scontent-b.cdninstagram.com/hphotos-xfp1/outbound-distilleryimage9/t0.0-17/OBPTH/c28efb14b45f11e3bcdb12d309462119_8.jpg'
p80
aS'http://scontent-a.cdninstagram.com/hphotos-xfa1/outbound-distilleryimage6/t0.0-17/OBPTH/3f37c16ab45f11e3843c12cac024e372_8.jpg'
p81
aS'http://scontent-a.cdninstagram.com/hphotos-xfa1/outbound-distilleryimage2/t0.0-17/OBPTH/58ffa78ab45e11e3be5d0e495519e27a_8.jpg'
p82
aS'http://scontent-a.cdninstagram.com/hphotos-xaf1/outbound-distilleryimage0/t0.0-17/OBPTH/59563382b45b11e3b81e1273282f92dc_8.jpg'
p83
aS'http://scontent-b.cdninstagram.com/hphotos-xfp1/outbound-distilleryimage9/t0.0-17/OBPTH/bab294b8b1ef11e38a8212c6608be005_8.jpg'
p84
aS'http://scontent-b.cdninstagram.com/hphotos-xpf1/outbound-distilleryimage5/t0.0-17/OBPTH/8400677aafa511e3a520120efe0b0f31_8.jpg'
p85
aS'http://scontent-b.cdninstagram.com/hphotos-xpf1/outbound-distilleryimage9/t0.0-17/OBPTH/c5885ccaad9811e3b17612ef1cbf7aa1_8.jpg'
p86
aS'http://scontent-a.cdninstagram.com/hphotos-xpa1/outbound-distilleryimage10/t0.0-17/OBPTH/46dcd5ecad2811e38ce00e7f19e5af3a_8.jpg'
p87
aS'http://scontent-b.cdninstagram.com/hphotos-xfp1/outbound-distilleryimage3/t0.0-17/OBPTH/5c0021b6ac9911e3b0830ebe97e3f2db_8.jpg'
p88
aS'http://scontent-b.cdninstagram.com/hphotos-xap1/outbound-distilleryimage6/t0.0-17/OBPTH/bd5f80daabf611e39d120e278e67a242_8.jpg'
p89
aS'http://scontent-a.cdninstagram.com/hphotos-xfa1/outbound-distilleryimage6/t0.0-17/OBPTH/7a097776abb211e3849f0a3c3a25f78e_8.jpg'
p90
aS'http://scontent-a.cdninstagram.com/hphotos-xpa1/outbound-distilleryimage4/t0.0-17/OBPTH/7454dc76ab3f11e3b8000e6c80acb384_8.jpg'
p91
aS'http://scontent-b.cdninstagram.com/hphotos-xap1/outbound-distilleryimage1/t0.0-17/OBPTH/dfa5936aab2811e38970124528f4b329_8.jpg'
p92
aS'http://scontent-b.cdninstagram.com/hphotos-xap1/outbound-distilleryimage7/t0.0-17/OBPTH/06fb28e6aafa11e3964c12d46efe1c53_8.jpg'
p93
aS'http://scontent-b.cdninstagram.com/hphotos-xfp1/outbound-distilleryimage8/t0.0-17/OBPTH/41c7187caa5a11e3ad1b121481e60c34_8.jpg'
p94
aS'http://scontent-a.cdninstagram.com/hphotos-xpa1/outbound-distilleryimage5/t0.0-17/OBPTH/e8daeb14a8e011e3a03f1268528d6865_8.jpg'
p95
aS'http://scontent-b.cdninstagram.com/hphotos-xpf1/outbound-distilleryimage0/t0.0-17/OBPTH/85119f44a73511e38bbc12ff09ecf480_8.jpg'
p96
aS'http://scontent-b.cdninstagram.com/hphotos-xpf1/outbound-distilleryimage5/t0.0-17/OBPTH/dcc4f982a68d11e38fb612064f8bfb61_8.jpg'
p97
aS'http://scontent-a.cdninstagram.com/hphotos-xfa1/outbound-distilleryimage9/t0.0-17/OBPTH/100d7a84a30b11e3babd12c2e4acfb29_7.jpg'
p98
aS'http://scontent-b.cdninstagram.com/hphotos-xfp1/outbound-distilleryimage8/t0.0-17/OBPTH/46c5a432a29511e397e812b3a40852ac_8.jpg'
p99
aS'http://scontent-b.cdninstagram.com/hphotos-xap1/outbound-distilleryimage3/t0.0-17/OBPTH/05654354a0ff11e3812b128275c327e7_8.jpg'
p100
aS'http://scontent-b.cdninstagram.com/hphotos-xap1/t51.2885-15/1663124_403232019814368_1589765177_n.jpg'
p101
aS'http://scontent-a.cdninstagram.com/hphotos-xpa1/t51.2885-15/1889228_266601396841667_1718538565_n.jpg'
p102
aS'http://scontent-b.cdninstagram.com/hphotos-xfp1/t51.2885-15/1661317_1416446968603164_775466340_n.jpg'
p103
aS'http://scontent-b.cdninstagram.com/hphotos-xpa1/t51.2885-15/1971536_211434532397610_356217400_n.jpg'
p104
aS'http://scontent-a.cdninstagram.com/hphotos-xfa1/t51.2885-15/1739969_612170435538029_120630488_n.jpg'
p105
aS'http://scontent-a.cdninstagram.com/hphotos-xfa1/t51.2885-15/1742002_583025541779649_426870012_n.jpg'
p106
aS'http://scontent-b.cdninstagram.com/hphotos-xpf1/t51.2885-15/1690463_217152608476991_958797964_n.jpg'
p107
aS'http://scontent-b.cdninstagram.com/hphotos-xpf1/t51.2885-15/1171600_555969104499104_517546546_n.jpg'
p108
aS'http://scontent-b.cdninstagram.com/hphotos-xap1/t51.2885-15/1737939_290503964429994_200120986_n.jpg'
p109
aS'http://scontent-a.cdninstagram.com/hphotos-xpf1/t51.2885-15/1662035_487799131329856_946513319_n.jpg'
p110
asS'foursquareID'
p111
S'4570691ff964a5205c3e1fe3'
p112
sS'Reject'
p113
(lp114
S'http://scontent-a.cdninstagram.com/hphotos-xpa1/t51.2885-15/10414057_668144929922320_813394898_n.jpg'
p115
aS'http://scontent-a.cdninstagram.com/hphotos-xpa1/t51.2885-15/10362182_1608272996064519_1191449090_n.jpg'
p116
ag116
aS'http://scontent-a.cdninstagram.com/hphotos-xpa1/t51.2885-15/10413140_391525487653275_1583897042_n.jpg'
p117
aS'http://scontent-b.cdninstagram.com/hphotos-xfa1/t51.2885-15/10349794_1469972023239046_771443301_n.jpg'
p118
aS'http://scontent-a.cdninstagram.com/hphotos-xfp1/t51.2885-15/10326384_306112322878862_97800069_n.jpg'
p119
aS'http://scontent-b.cdninstagram.com/hphotos-xap1/t51.2885-15/928428_441471885989008_448816645_n.jpg'
p120
aS'http://scontent-b.cdninstagram.com/hphotos-xpf1/t51.2885-15/1662149_1426202240970321_2099283503_n.jpg'
p121
aS'http://scontent-b.cdninstagram.com/hphotos-xaf1/t51.2885-15/10268760_235440619980546_576449839_n.jpg'
p122
ag122
aS'http://scontent-b.cdninstagram.com/hphotos-xap1/t51.2885-15/926430_570746516372865_2144507168_n.jpg'
p123
aS'http://scontent-a.cdninstagram.com/hphotos-xaf1/t51.2885-15/917866_702100633186631_408402423_n.jpg'
p124
aS'http://scontent-b.cdninstagram.com/hphotos-xap1/t51.2885-15/928224_568450773270879_692692696_n.jpg'
p125
aS'http://scontent-a.cdninstagram.com/hphotos-prn/t51.2885-15/929059_238956002977201_275970680_n.jpg'
p126
aS'http://scontent-a.cdninstagram.com/hphotos-xaf1/t51.2885-15/1725132_1429916290589800_573828875_n.jpg'
p127
aS'http://scontent-a.cdninstagram.com/hphotos-xfa1/t51.2885-15/1724902_664681033598780_781917582_n.jpg'
p128
aS'http://scontent-a.cdninstagram.com/hphotos-xpa1/t51.2885-15/927007_229505240575275_1324343014_n.jpg'
p129
ag21
ag74
aS'http://scontent-a.cdninstagram.com/hphotos-xaf1/t51.2885-15/10009360_632065806841959_137984774_n.jpg'
p130
aS'http://scontent-a.cdninstagram.com/hphotos-xpa1/outbound-distilleryimage9/t0.0-17/OBPTH/b6bcb368b47c11e3a78d0ab9c0a565fd_8.jpg'
p131
aS'http://scontent-b.cdninstagram.com/hphotos-xpf1/outbound-distilleryimage9/t0.0-17/OBPTH/e8ef0aa4b3da11e380301215423c68e1_8.jpg'
p132
aS'http://scontent-a.cdninstagram.com/hphotos-xaf1/outbound-distilleryimage10/t0.0-17/OBPTH/a310b0e2b3b111e3981c122f3461141a_8.jpg'
p133
ag84
aS'http://scontent-a.cdninstagram.com/hphotos-xaf1/outbound-distilleryimage5/t0.0-17/OBPTH/dfeb7ee0af9a11e3b9f312c7a50f9e29_8.jpg'
p134
aS'http://scontent-a.cdninstagram.com/hphotos-xaf1/outbound-distilleryimage6/t0.0-17/OBPTH/f90b085aac9811e3a7b912f132ba8f8e_8.jpg'
p135
aS'http://scontent-b.cdninstagram.com/hphotos-xpf1/outbound-distilleryimage4/t0.0-17/OBPTH/7cba7c32abf211e3889612b345db75cc_8.jpg'
p136
aS'http://scontent-b.cdninstagram.com/hphotos-xap1/outbound-distilleryimage3/t0.0-17/OBPTH/f5e5651cabe411e3aa1d12fe49d61113_8.jpg'
p137
aS'http://scontent-b.cdninstagram.com/hphotos-xfp1/outbound-distilleryimage3/t0.0-17/OBPTH/0c7c9ce2ab2611e3928d12ca4fdf17b7_8.jpg'
p138
aS'http://scontent-a.cdninstagram.com/hphotos-xpa1/outbound-distilleryimage2/t0.0-17/OBPTH/486eadb4ab2411e3861412da7d715eee_8.jpg'
p139
aS'http://scontent-b.cdninstagram.com/hphotos-xfp1/outbound-distilleryimage0/t0.0-17/OBPTH/ddd61488a98411e3b8d312183ac03424_8.jpg'
p140
aS'http://scontent-b.cdninstagram.com/hphotos-xfp1/outbound-distilleryimage1/t0.0-17/OBPTH/fc1d439aa70d11e386ba1297a24481bd_8.jpg'
p141
aS'http://scontent-a.cdninstagram.com/hphotos-xaf1/outbound-distilleryimage0/t0.0-17/OBPTH/805c9f32a63411e3a824121664af44a0_8.jpg'
p142
aS'http://scontent-b.cdninstagram.com/hphotos-xfp1/outbound-distilleryimage8/t0.0-17/OBPTH/fdf1dbf2a42611e396201228ce4a3274_8.jpg'
p143
aS'http://scontent-b.cdninstagram.com/hphotos-xap1/outbound-distilleryimage4/t0.0-17/OBPTH/6366ed68a1db11e383940ee0962af0a0_8.jpg'
p144
aS'http://scontent-a.cdninstagram.com/hphotos-xaf1/outbound-distilleryimage4/t0.0-17/OBPTH/7f03a098a1d611e38a4112a4b7a32cd0_8.jpg'
p145
aS'http://scontent-b.cdninstagram.com/hphotos-xpf1/outbound-distilleryimage8/t0.0-17/OBPTH/da277b40a12011e3bff4127d1946dee0_8.jpg'
p146
ag100
ag43
aS'http://scontent-b.cdninstagram.com/hphotos-xfa1/t51.2885-15/1799668_629143283806525_940320697_n.jpg'
p147
aS'http://scontent-a.cdninstagram.com/hphotos-xpa1/t51.2885-15/924245_659893294067807_698789152_n.jpg'
p148
aS'http://scontent-b.cdninstagram.com/hphotos-xfa1/t51.2885-15/1889206_359827554158353_361775470_n.jpg'
p149
aS'http://scontent-a.cdninstagram.com/hphotos-xfa1/t51.2885-15/1799662_1423340827912090_53814061_n.jpg'
p150
aS'http://scontent-b.cdninstagram.com/hphotos-xpf1/outbound-distilleryimage1/t0.0-17/OBPTH/92ad56f0991311e3b819126780c3fce1_8.jpg'
p151
aS'http://scontent-b.cdninstagram.com/hphotos-xfa1/t51.2885-15/1941184_223354131203431_1690692855_n.jpg'
p152
aS'http://scontent-a.cdninstagram.com/hphotos-xfp1/t51.2885-15/1739737_306880632770280_1856162590_n.jpg'
p153
aS'http://scontent-a.cdninstagram.com/hphotos-xap1/t51.2885-15/1740873_209283425933920_525772526_n.jpg'
p154
aS'http://scontent-a.cdninstagram.com/hphotos-xfp1/t51.2885-15/1740175_654594727934378_917882164_n.jpg'
p155
aS'http://scontent-b.cdninstagram.com/hphotos-xfa1/t51.2885-15/1741768_514329215349774_1876876443_n.jpg'
p156
aS'http://scontent-a.cdninstagram.com/hphotos-xpa1/t51.2885-15/1662945_1421999178041416_1931715435_n.jpg'
p157
aS'http://scontent-a.cdninstagram.com/hphotos-xaf1/t51.2885-15/917536_1460243404191579_61320559_n.jpg'
p158
aS'http://scontent-b.cdninstagram.com/hphotos-xfp1/t51.2885-15/1742177_588698181210089_1170211565_n.jpg'
p159
aS'http://scontent-a.cdninstagram.com/hphotos-xfa1/t51.2885-15/1741318_472528329536240_1041774678_n.jpg'
p160
aS'http://scontent-a.cdninstagram.com/hphotos-xpf1/t51.2885-15/1662707_791467367532618_2096291406_n.jpg'
p161
asS'urlList'
p162
(lp163
g6
ag7
ag8
ag9
ag61
ag62
ag115
ag63
ag116
ag64
ag65
ag10
ag117
ag11
ag66
ag12
ag118
ag119
ag67
ag120
ag68
ag121
ag69
ag13
ag122
ag123
ag14
ag15
ag124
ag70
ag16
ag17
ag125
ag126
ag71
ag18
ag19
ag72
ag127
ag20
ag128
ag73
ag129
ag21
ag22
ag23
ag74
ag75
ag24
ag25
ag76
ag26
ag130
ag77
ag27
ag78
ag131
ag79
ag80
ag81
ag82
ag83
ag132
ag133
ag28
ag84
ag134
ag85
ag29
ag86
ag30
ag31
ag32
ag87
ag33
ag88
ag135
ag34
ag89
ag136
ag137
ag90
ag91
ag92
ag138
ag139
ag93
ag94
ag140
ag95
ag35
ag96
ag141
ag97
ag36
ag142
ag37
ag38
ag143
ag39
ag98
ag99
ag40
ag144
ag145
ag41
ag42
ag146
ag43
ag100
ag101
ag147
ag44
ag45
ag46
ag47
ag148
ag48
ag49
ag102
ag149
ag103
ag104
ag150
ag50
ag151
ag51
ag52
ag152
ag53
ag105
ag54
ag153
ag55
ag154
ag106
ag56
ag107
ag155
ag156
ag157
ag158
ag57
ag58
ag159
ag108
ag109
ag110
ag160
ag161
asS'Blurry'
p164
(lp165
sb.