(i__main__
Restaurant
p0
(dp1
S'NoPeople'
p2
(lp3
sS'People'
p4
(lp5
S'http://scontent-b.cdninstagram.com/hphotos-xpa1/t51.2885-15/10520323_500393790091447_362952963_n.jpg'
p6
aS'http://scontent-b.cdninstagram.com/hphotos-xfa1/t51.2885-15/10570034_1461509487450205_983043626_n.jpg'
p7
aS'http://scontent-a.cdninstagram.com/hphotos-xap1/t51.2885-15/928041_537639479695474_117765912_n.jpg'
p8
aS'http://scontent-b.cdninstagram.com/hphotos-xpf1/t51.2885-15/10499186_1452354881684936_1364721110_n.jpg'
p9
aS'http://scontent-b.cdninstagram.com/hphotos-xpf1/t51.2885-15/10549658_237698063107685_408133929_n.jpg'
p10
aS'http://scontent-a.cdninstagram.com/hphotos-xap1/t51.2885-15/10522329_606512759456568_249363625_n.jpg'
p11
aS'http://scontent-b.cdninstagram.com/hphotos-xfa1/t51.2885-15/10554160_773187722724479_1642636879_n.jpg'
p12
aS'http://scontent-b.cdninstagram.com/hphotos-xfp1/t51.2885-15/10518025_305412016299297_207142074_n.jpg'
p13
aS'http://scontent-b.cdninstagram.com/hphotos-xap1/t51.2885-15/10488603_1477066915870274_1041748798_n.jpg'
p14
aS'http://scontent-a.cdninstagram.com/hphotos-xap1/t51.2885-15/10549611_819767074702150_1196145916_n.jpg'
p15
aS'http://scontent-a.cdninstagram.com/hphotos-xap1/t51.2885-15/10471881_1438483673094652_2066501325_n.jpg'
p16
aS'http://scontent-a.cdninstagram.com/hphotos-xpf1/t51.2885-15/10467985_298143023679704_1696248547_n.jpg'
p17
aS'http://scontent-b.cdninstagram.com/hphotos-xpa1/t51.2885-15/10522856_668231809930330_1049170527_n.jpg'
p18
aS'http://scontent-a.cdninstagram.com/hphotos-xpa1/t51.2885-15/927709_337108289773345_706554595_n.jpg'
p19
aS'http://scontent-a.cdninstagram.com/hphotos-xpf1/t51.2885-15/10483613_841507812544235_429912354_n.jpg'
p20
aS'http://scontent-a.cdninstagram.com/hphotos-xap1/t51.2885-15/10472002_410065685798271_385584112_n.jpg'
p21
aS'http://scontent-a.cdninstagram.com/hphotos-xpf1/t51.2885-15/10467911_595207037265729_72549912_n.jpg'
p22
aS'http://scontent-b.cdninstagram.com/hphotos-xfp1/t51.2885-15/10475139_250473721815089_721956695_n.jpg'
p23
aS'http://scontent-a.cdninstagram.com/hphotos-xpf1/t51.2885-15/10523596_747319258666152_1938310957_n.jpg'
p24
aS'http://scontent-a.cdninstagram.com/hphotos-xap1/t51.2885-15/10522815_1471161236457618_46495628_n.jpg'
p25
aS'http://scontent-b.cdninstagram.com/hphotos-xfa1/t51.2885-15/10488664_1646065698951454_813785163_n.jpg'
p26
aS'http://scontent-b.cdninstagram.com/hphotos-prn/t51.2885-15/929118_296350850541894_1136242921_n.jpg'
p27
aS'http://scontent-b.cdninstagram.com/hphotos-xfa1/t51.2885-15/914725_666167930096898_2102021773_n.jpg'
p28
aS'http://scontent-a.cdninstagram.com/hphotos-xpa1/t51.2885-15/926794_340634629417286_1564797078_n.jpg'
p29
aS'http://scontent-b.cdninstagram.com/hphotos-xpa1/t51.2885-15/1515493_266366216883629_1507019547_n.jpg'
p30
aS'http://scontent-b.cdninstagram.com/hphotos-xap1/t51.2885-15/926817_1438330909768769_82721322_n.jpg'
p31
aS'http://scontent-b.cdninstagram.com/hphotos-xpf1/t51.2885-15/10499186_326505927505172_1606403879_n.jpg'
p32
aS'http://scontent-a.cdninstagram.com/hphotos-xpa1/t51.2885-15/10508045_810950625582910_1079279802_n.jpg'
p33
aS'http://scontent-a.cdninstagram.com/hphotos-xpa1/t51.2885-15/10413878_629063157179585_236473742_n.jpg'
p34
aS'http://scontent-b.cdninstagram.com/hphotos-xpa1/t51.2885-15/927713_322698831227819_1335362556_n.jpg'
p35
aS'http://scontent-a.cdninstagram.com/hphotos-xaf1/t51.2885-15/10454076_655699407832256_327732694_n.jpg'
p36
aS'http://scontent-a.cdninstagram.com/hphotos-xfp1/t51.2885-15/10431823_607751162656798_1880108221_n.jpg'
p37
aS'http://scontent-b.cdninstagram.com/hphotos-xpa1/t51.2885-15/10387970_1502909066606994_14081485_n.jpg'
p38
asS'Food'
p39
(lp40
S'http://scontent-b.cdninstagram.com/hphotos-xfa1/t51.2885-15/914767_1535220030040221_1303901033_n.jpg'
p41
aS'http://scontent-a.cdninstagram.com/hphotos-xfa1/t51.2885-15/10584536_793585690681166_1356773272_n.jpg'
p42
aS'http://scontent-b.cdninstagram.com/hphotos-xaf1/t51.2885-15/10584616_792447654133534_1093447383_n.jpg'
p43
aS'http://scontent-b.cdninstagram.com/hphotos-xaf1/t51.2885-15/10570210_1456655031263605_476108882_n.jpg'
p44
aS'http://scontent-a.cdninstagram.com/hphotos-xfp1/t51.2885-15/10488801_1446083889009088_1441297309_n.jpg'
p45
aS'http://scontent-b.cdninstagram.com/hphotos-xpa1/t51.2885-15/928612_678976952182213_421845429_n.jpg'
p46
aS'http://scontent-a.cdninstagram.com/hphotos-xpa1/t51.2885-15/10518010_542005622591557_1961721525_n.jpg'
p47
aS'http://scontent-b.cdninstagram.com/hphotos-xpa1/t51.2885-15/924428_1453486278237317_625166500_n.jpg'
p48
aS'http://scontent-b.cdninstagram.com/hphotos-xpf1/t51.2885-15/10553999_1533353163560053_1536737539_n.jpg'
p49
aS'http://scontent-a.cdninstagram.com/hphotos-xap1/t51.2885-15/10560915_1446432112307165_1160281424_n.jpg'
p50
aS'http://scontent-a.cdninstagram.com/hphotos-xaf1/t51.2885-15/10483580_930944020265854_1946430130_n.jpg'
p51
aS'http://scontent-a.cdninstagram.com/hphotos-xaf1/t51.2885-15/10561026_836557343021063_891120253_n.jpg'
p52
aS'http://scontent-b.cdninstagram.com/hphotos-xpa1/t51.2885-15/926249_547620035344544_571063785_n.jpg'
p53
aS'http://scontent-a.cdninstagram.com/hphotos-xpf1/t51.2885-15/10549775_1440632206222019_2017664080_n.jpg'
p54
aS'http://scontent-b.cdninstagram.com/hphotos-xfa1/t51.2885-15/10560988_906979112650363_865833437_n.jpg'
p55
aS'http://scontent-a.cdninstagram.com/hphotos-xpa1/t51.2885-15/925946_266699573537757_301620751_n.jpg'
p56
aS'http://scontent-a.cdninstagram.com/hphotos-xpf1/t51.2885-15/10546525_633387473442374_284180133_n.jpg'
p57
aS'http://scontent-a.cdninstagram.com/hphotos-xap1/t51.2885-15/10561119_270532193152092_1955627440_n.jpg'
p58
aS'http://scontent-a.cdninstagram.com/hphotos-xpa1/t51.2885-15/10540468_1444987825772756_2071219489_n.jpg'
p59
aS'http://scontent-a.cdninstagram.com/hphotos-xpa1/t51.2885-15/10514090_847176391959972_1828949369_n.jpg'
p60
aS'http://scontent-a.cdninstagram.com/hphotos-xpf1/t51.2885-15/10554167_559130387525367_436729586_n.jpg'
p61
aS'http://scontent-a.cdninstagram.com/hphotos-xpa1/t51.2885-15/10507895_1454318951485115_330144162_n.jpg'
p62
aS'http://scontent-b.cdninstagram.com/hphotos-xpf1/t51.2885-15/10488589_320503134780885_397025897_n.jpg'
p63
aS'http://scontent-b.cdninstagram.com/hphotos-xpf1/t51.2885-15/10554227_1402569969963573_260921831_n.jpg'
p64
aS'http://scontent-a.cdninstagram.com/hphotos-xpf1/t51.2885-15/10475141_726488967397160_1184802532_n.jpg'
p65
aS'http://scontent-b.cdninstagram.com/hphotos-xpa1/t51.2885-15/10488506_710932488967600_1127542975_n.jpg'
p66
aS'http://scontent-a.cdninstagram.com/hphotos-xpf1/t51.2885-15/10454021_712389845507365_1577789567_n.jpg'
p67
aS'http://scontent-b.cdninstagram.com/hphotos-xpf1/t51.2885-15/10553999_1506128176284686_1447369439_n.jpg'
p68
aS'http://scontent-a.cdninstagram.com/hphotos-xpa1/t51.2885-15/10537988_1440423762901029_652656754_n.jpg'
p69
aS'http://scontent-b.cdninstagram.com/hphotos-xap1/t51.2885-15/10508004_267228100150115_1937060768_n.jpg'
p70
aS'http://scontent-a.cdninstagram.com/hphotos-xfp1/t51.2885-15/10547086_1451400021793613_1259567949_n.jpg'
p71
aS'http://scontent-b.cdninstagram.com/hphotos-xap1/t51.2885-15/10513830_1459679974289237_548140638_n.jpg'
p72
aS'http://scontent-a.cdninstagram.com/hphotos-xfa1/t51.2885-15/10471954_1440787562871613_1786668223_n.jpg'
p73
aS'http://scontent-b.cdninstagram.com/hphotos-xpf1/t51.2885-15/10471967_766758970011729_17374886_n.jpg'
p74
aS'http://scontent-b.cdninstagram.com/hphotos-xfp1/t51.2885-15/10518228_658600217565374_1988317553_n.jpg'
p75
aS'http://scontent-a.cdninstagram.com/hphotos-prn/t51.2885-15/929147_688928551178858_1319642576_n.jpg'
p76
aS'http://scontent-a.cdninstagram.com/hphotos-xap1/t51.2885-15/10522863_650155838400473_388833872_n.jpg'
p77
aS'http://scontent-a.cdninstagram.com/hphotos-xpa1/t51.2885-15/10520378_317837185059949_581086673_n.jpg'
p78
aS'http://scontent-b.cdninstagram.com/hphotos-xpf1/t51.2885-15/10488602_660764267345540_379192755_n.jpg'
p79
aS'http://scontent-b.cdninstagram.com/hphotos-xfa1/t51.2885-15/10507786_910068752353593_551102980_n.jpg'
p80
aS'http://scontent-b.cdninstagram.com/hphotos-xpa1/t51.2885-15/10513811_727236300674011_218014768_n.jpg'
p81
aS'http://scontent-b.cdninstagram.com/hphotos-xap1/t51.2885-15/925545_1434342880173659_38954275_n.jpg'
p82
aS'http://scontent-a.cdninstagram.com/hphotos-xap1/t51.2885-15/928005_700082943373478_2125317539_n.jpg'
p83
aS'http://scontent-b.cdninstagram.com/hphotos-xfp1/t51.2885-15/10471867_759525374070514_1563385182_n.jpg'
p84
aS'http://scontent-a.cdninstagram.com/hphotos-xpf1/t51.2885-15/10488665_682882648443929_1452049018_n.jpg'
p85
aS'http://scontent-a.cdninstagram.com/hphotos-xap1/t51.2885-15/926511_805007602856345_188098496_n.jpg'
p86
aS'http://scontent-b.cdninstagram.com/hphotos-xap1/t51.2885-15/10523259_1432012457085871_2046698696_n.jpg'
p87
aS'http://scontent-b.cdninstagram.com/hphotos-xpa1/t51.2885-15/10499231_679217662133516_241607248_n.jpg'
p88
aS'http://scontent-b.cdninstagram.com/hphotos-xpa1/t51.2885-15/10354280_615619325211881_1302638938_n.jpg'
p89
aS'http://scontent-b.cdninstagram.com/hphotos-xfp1/t51.2885-15/10431942_1470098423236664_2090407334_n.jpg'
p90
aS'http://scontent-b.cdninstagram.com/hphotos-xap1/outbound-distilleryimage0/t0.0-17/OBPTH/c5747c88ff4011e3822c90e2ba66bf88_8.jpg'
p91
aS'http://scontent-b.cdninstagram.com/hphotos-xpa1/t51.2885-15/10520356_1513963818834825_1853216978_n.jpg'
p92
aS'http://scontent-b.cdninstagram.com/hphotos-xfp1/t51.2885-15/10467751_334722106680077_1023456860_n.jpg'
p93
aS'http://scontent-a.cdninstagram.com/hphotos-xpa1/t51.2885-15/10475015_684604244967383_1822241950_n.jpg'
p94
aS'http://scontent-b.cdninstagram.com/hphotos-xfa1/l/t51.2885-15/10471942_649302298488707_2038170697_n.jpg'
p95
aS'http://scontent-a.cdninstagram.com/hphotos-xpa1/t51.2885-15/10474960_1435477873388917_921233018_n.jpg'
p96
aS'http://scontent-a.cdninstagram.com/hphotos-xfp1/t51.2885-15/10474924_404896822983155_1293440098_n.jpg'
p97
aS'http://scontent-b.cdninstagram.com/hphotos-xpa1/t51.2885-15/10507946_586685211449032_927739117_n.jpg'
p98
aS'http://scontent-b.cdninstagram.com/hphotos-xpa1/t51.2885-15/926234_868320089862309_840680080_n.jpg'
p99
aS'http://scontent-a.cdninstagram.com/hphotos-xpf1/t51.2885-15/10507921_1501451770070110_1673494188_n.jpg'
p100
aS'http://scontent-b.cdninstagram.com/hphotos-xap1/t51.2885-15/928278_290524297785401_589613656_n.jpg'
p101
aS'http://scontent-b.cdninstagram.com/hphotos-xpf1/t51.2885-15/10424540_709081292485434_1574802033_n.jpg'
p102
aS'http://scontent-b.cdninstagram.com/hphotos-xap1/t51.2885-15/10471971_1435854460017451_521216008_n.jpg'
p103
aS'http://scontent-a.cdninstagram.com/hphotos-xaf1/t51.2885-15/10448982_332906960196970_550560033_n.jpg'
p104
aS'http://scontent-b.cdninstagram.com/hphotos-xap1/t51.2885-15/928281_714162835307801_1570938686_n.jpg'
p105
aS'http://scontent-b.cdninstagram.com/hphotos-xap1/t51.2885-15/10483458_413547452121207_2098917507_n.jpg'
p106
aS'http://scontent-b.cdninstagram.com/hphotos-xap1/t51.2885-15/10349673_1501904093357773_786095062_n.jpg'
p107
aS'http://scontent-a.cdninstagram.com/hphotos-xpa1/t51.2885-15/10413842_770820239630026_639509221_n.jpg'
p108
aS'http://scontent-a.cdninstagram.com/hphotos-xpa1/t51.2885-15/927081_648073115286010_1343518818_n.jpg'
p109
aS'http://scontent-b.cdninstagram.com/hphotos-xap1/t51.2885-15/10387923_243254925874119_508856277_n.jpg'
p110
aS'http://scontent-a.cdninstagram.com/hphotos-xpa1/t51.2885-15/10471997_795443870488030_1633637822_n.jpg'
p111
aS'http://scontent-a.cdninstagram.com/hphotos-xap1/t51.2885-15/10424436_750745778308769_1615282929_n.jpg'
p112
aS'http://scontent-a.cdninstagram.com/hphotos-xpf1/t51.2885-15/10375660_655859584505721_1736990887_n.jpg'
p113
asS'foursquareID'
p114
S'4ab0402ff964a520ad6620e3'
p115
sS'Reject'
p116
(lp117
S'http://scontent-b.cdninstagram.com/hphotos-xpa1/t51.2885-15/10549628_1445419875731343_501599311_n.jpg'
p118
aS'http://scontent-a.cdninstagram.com/hphotos-xpa1/l/t51.2885-15/927742_743915045647414_1269756073_n.jpg'
p119
aS'http://scontent-b.cdninstagram.com/hphotos-xpf1/t51.2885-15/10543538_315493378627191_2142453008_n.jpg'
p120
aS'http://scontent-a.cdninstagram.com/hphotos-xpa1/t51.2885-15/10513744_885119474849114_1668512243_n.jpg'
p121
aS'http://scontent-a.cdninstagram.com/hphotos-xap1/t51.2885-15/10518060_746112122120010_1478508521_n.jpg'
p122
aS'http://scontent-b.cdninstagram.com/hphotos-xaf1/t51.2885-15/10560966_818302404854970_253731829_n.jpg'
p123
ag51
aS'http://scontent-a.cdninstagram.com/hphotos-xfp1/t51.2885-15/10546633_492760550827344_167141850_n.jpg'
p124
aS'http://scontent-a.cdninstagram.com/hphotos-xpf1/t51.2885-15/10543574_813455112008559_701332893_n.jpg'
p125
aS'http://scontent-a.cdninstagram.com/hphotos-xpf1/t51.2885-15/10535111_685647511510298_1858216552_n.jpg'
p126
ag7
ag55
aS'http://scontent-a.cdninstagram.com/hphotos-xpf1/t51.2885-15/10488599_667798539954852_1283955607_n.jpg'
p127
aS'http://scontent-b.cdninstagram.com/hphotos-xap1/t51.2885-15/10508055_708782902490810_2023500991_n.jpg'
p128
aS'http://scontent-a.cdninstagram.com/hphotos-xfp1/t51.2885-15/10549603_875864789108219_871496536_n.jpg'
p129
aS'http://scontent-a.cdninstagram.com/hphotos-xfp1/t51.2885-15/10535082_723611877695542_1482297533_n.jpg'
p130
aS'http://scontent-a.cdninstagram.com/hphotos-xfp1/t51.2885-15/10547317_686351988080676_1843105150_n.jpg'
p131
aS'http://scontent-a.cdninstagram.com/hphotos-xaf1/t51.2885-15/915600_504609186336440_2143295924_n.jpg'
p132
aS'http://scontent-a.cdninstagram.com/hphotos-xpa1/t51.2885-15/10542763_256097484583216_1259802578_n.jpg'
p133
aS'http://scontent-a.cdninstagram.com/hphotos-xap1/t51.2885-15/10488627_713322382066469_2074197395_n.jpg'
p134
aS'http://scontent-b.cdninstagram.com/hphotos-xpa1/t51.2885-15/10467800_767554993294649_1521199694_n.jpg'
p135
aS'http://scontent-b.cdninstagram.com/hphotos-xpf1/t51.2885-15/10547068_676207352453285_1594442879_n.jpg'
p136
aS'http://scontent-b.cdninstagram.com/hphotos-xap1/t51.2885-15/927720_248249258698455_557206782_n.jpg'
p137
aS'http://scontent-a.cdninstagram.com/hphotos-xfp1/t51.2885-15/10499124_742826525776131_2022849345_n.jpg'
p138
aS'http://scontent-b.cdninstagram.com/hphotos-xpf1/t51.2885-15/10499135_779436552088670_713687712_n.jpg'
p139
aS'http://scontent-b.cdninstagram.com/hphotos-xap1/t51.2885-15/925548_607860245995581_981119320_n.jpg'
p140
aS'http://scontent-a.cdninstagram.com/hphotos-xfp1/t51.2885-15/10520114_318422734982253_1824754579_n.jpg'
p141
aS'http://scontent-a.cdninstagram.com/hphotos-xpa1/t51.2885-15/10520153_1479998455576753_942427885_n.jpg'
p142
aS'http://scontent-b.cdninstagram.com/hphotos-xap1/t51.2885-15/10518213_286822834830653_2119130289_n.jpg'
p143
aS'http://scontent-b.cdninstagram.com/hphotos-xap1/t51.2885-15/10520358_723548267687051_1684752939_n.jpg'
p144
aS'http://scontent-a.cdninstagram.com/hphotos-xap1/t51.2885-15/10520334_711302582250451_110959240_n.jpg'
p145
aS'http://scontent-b.cdninstagram.com/hphotos-xpf1/t51.2885-15/10499213_428617040613703_860125459_n.jpg'
p146
aS'http://scontent-a.cdninstagram.com/hphotos-xap1/t51.2885-15/928302_262045717331100_676589096_n.jpg'
p147
aS'http://scontent-a.cdninstagram.com/hphotos-xpa1/t51.2885-15/928276_489781394501633_1432887172_n.jpg'
p148
aS'http://scontent-b.cdninstagram.com/hphotos-xpa1/t51.2885-15/925315_1462662500647024_912434083_n.jpg'
p149
aS'http://scontent-a.cdninstagram.com/hphotos-xpa1/t51.2885-15/10413002_1447599952158241_1176112267_n.jpg'
p150
aS'http://scontent-b.cdninstagram.com/hphotos-xap1/t51.2885-15/10467945_733233220046777_117899765_n.jpg'
p151
aS'http://scontent-a.cdninstagram.com/hphotos-xpa1/t51.2885-15/10518077_1513781008837189_1415647094_n.jpg'
p152
aS'http://scontent-a.cdninstagram.com/hphotos-xpa1/t51.2885-15/10472075_268974569953636_2033976235_n.jpg'
p153
aS'http://scontent-a.cdninstagram.com/hphotos-xaf1/t51.2885-15/914412_1476184149289291_80199840_n.jpg'
p154
aS'http://scontent-b.cdninstagram.com/hphotos-xfp1/t51.2885-15/10499248_322083317949945_1615473908_n.jpg'
p155
aS'http://scontent-a.cdninstagram.com/hphotos-xaf1/t51.2885-15/10472010_695580273836150_456497154_n.jpg'
p156
aS'http://scontent-b.cdninstagram.com/hphotos-xap1/t51.2885-15/10474920_721428617919069_1936219523_n.jpg'
p157
aS'http://scontent-a.cdninstagram.com/hphotos-xpf1/t51.2885-15/10502619_1433561073576287_903091446_n.jpg'
p158
aS'http://scontent-b.cdninstagram.com/hphotos-xpf1/t51.2885-15/10401767_718218434886636_2092674324_n.jpg'
p159
aS'http://scontent-a.cdninstagram.com/hphotos-xpa1/t51.2885-15/10448888_775979245776388_802980727_n.jpg'
p160
aS'http://scontent-b.cdninstagram.com/hphotos-xap1/t51.2885-15/925026_294497874058774_2041195883_n.jpg'
p161
asS'urlList'
p162
(lp163
g41
ag42
ag118
ag43
ag44
ag119
ag45
ag46
ag120
ag47
ag121
ag48
ag49
ag50
ag122
ag123
ag51
ag124
ag52
ag125
ag126
ag6
ag53
ag54
ag55
ag7
ag8
ag56
ag127
ag9
ag128
ag129
ag10
ag57
ag130
ag11
ag58
ag131
ag12
ag132
ag13
ag59
ag133
ag60
ag61
ag134
ag135
ag136
ag62
ag63
ag137
ag64
ag65
ag66
ag67
ag138
ag68
ag14
ag139
ag15
ag69
ag70
ag71
ag16
ag17
ag72
ag73
ag74
ag140
ag18
ag141
ag75
ag76
ag77
ag19
ag20
ag78
ag79
ag80
ag142
ag81
ag82
ag83
ag84
ag21
ag22
ag85
ag86
ag23
ag143
ag144
ag24
ag25
ag145
ag87
ag88
ag26
ag27
ag146
ag147
ag89
ag148
ag149
ag90
ag91
ag150
ag92
ag28
ag29
ag151
ag152
ag30
ag153
ag93
ag31
ag94
ag95
ag96
ag154
ag97
ag32
ag155
ag156
ag98
ag99
ag157
ag33
ag34
ag35
ag36
ag158
ag100
ag101
ag159
ag102
ag103
ag104
ag105
ag160
ag106
ag107
ag37
ag108
ag109
ag110
ag38
ag111
ag161
ag112
ag113
asS'Blurry'
p164
(lp165
sb.