(i__main__
Restaurant
p0
(dp1
S'NoPeople'
p2
(lp3
sS'People'
p4
(lp5
S'http://scontent-a.cdninstagram.com/hphotos-xpa1/t51.2885-15/10546844_1443289552613254_49957137_n.jpg'
p6
aS'http://scontent-a.cdninstagram.com/hphotos-xaf1/t51.2885-15/10576059_690938067651513_502336299_n.jpg'
p7
aS'http://scontent-b.cdninstagram.com/hphotos-xap1/t51.2885-15/10514070_1443629125912122_394826150_n.jpg'
p8
aS'http://scontent-b.cdninstagram.com/hphotos-xfp1/t51.2885-15/10547106_599787076807749_2056870489_n.jpg'
p9
aS'http://scontent-a.cdninstagram.com/hphotos-xap1/t51.2885-15/10514037_1471826523065809_418018266_n.jpg'
p10
aS'http://scontent-a.cdninstagram.com/hphotos-xaf1/t51.2885-15/10554012_836855919658753_309918007_n.jpg'
p11
aS'http://scontent-b.cdninstagram.com/hphotos-xpa1/t51.2885-15/10520212_1475276379377866_24395185_n.jpg'
p12
aS'http://scontent-b.cdninstagram.com/hphotos-xap1/t51.2885-15/10520250_934729649885940_1033852268_n.jpg'
p13
aS'http://scontent-a.cdninstagram.com/hphotos-xap1/t51.2885-15/923688_297220460459777_1222759580_n.jpg'
p14
aS'http://scontent-b.cdninstagram.com/hphotos-xap1/t51.2885-15/10507857_676559715759728_1506032200_n.jpg'
p15
aS'http://scontent-a.cdninstagram.com/hphotos-xpa1/t51.2885-15/10514134_257228791144182_876971373_n.jpg'
p16
aS'http://scontent-b.cdninstagram.com/hphotos-xap1/t51.2885-15/925917_732840046776468_426941778_n.jpg'
p17
aS'http://scontent-a.cdninstagram.com/hphotos-xpa1/t51.2885-15/10523570_1440103246252955_277153817_n.jpg'
p18
aS'http://scontent-a.cdninstagram.com/hphotos-xpa1/t51.2885-15/10533421_1440035666262478_359626606_n.jpg'
p19
aS'http://scontent-b.cdninstagram.com/hphotos-xpf1/t51.2885-15/10349753_299733666866304_1179190448_n.jpg'
p20
aS'http://scontent-b.cdninstagram.com/hphotos-xfp1/t51.2885-15/10467885_268071350061955_1746949930_n.jpg'
p21
aS'http://scontent-b.cdninstagram.com/hphotos-xap1/t51.2885-15/10268790_1432902333663183_229922744_n.jpg'
p22
aS'http://scontent-a.cdninstagram.com/hphotos-xpf1/t51.2885-15/10431971_842063605804419_858409725_n.jpg'
p23
aS'http://scontent-a.cdninstagram.com/hphotos-xpf1/t51.2885-15/891383_801633816527194_349290391_n.jpg'
p24
aS'http://scontent-a.cdninstagram.com/hphotos-xap1/t51.2885-15/10488603_263128627222916_1075737186_n.jpg'
p25
aS'http://scontent-a.cdninstagram.com/hphotos-xpf1/t51.2885-15/10467851_678517095530276_224622889_n.jpg'
p26
aS'http://scontent-b.cdninstagram.com/hphotos-xap1/t51.2885-15/10507857_309884585837962_1335159884_n.jpg'
p27
aS'http://scontent-a.cdninstagram.com/hphotos-xfa1/t51.2885-15/914743_1437071246556046_1272283382_n.jpg'
p28
aS'http://scontent-a.cdninstagram.com/hphotos-xpa1/t51.2885-15/10424467_407802759358823_2144433976_n.jpg'
p29
aS'http://scontent-b.cdninstagram.com/hphotos-xfp1/t51.2885-15/10499248_1524704121091556_762859132_n.jpg'
p30
aS'http://scontent-b.cdninstagram.com/hphotos-xpa1/t51.2885-15/10508060_459771870793198_1193733168_n.jpg'
p31
aS'http://scontent-a.cdninstagram.com/hphotos-xaf1/t51.2885-15/10413954_813003282050955_980260096_n.jpg'
p32
aS'http://scontent-a.cdninstagram.com/hphotos-xfp1/t51.2885-15/10431955_1431300130489633_1486331732_n.jpg'
p33
aS'http://scontent-a.cdninstagram.com/hphotos-xaf1/t51.2885-15/10413864_1488434711391744_1341218016_n.jpg'
p34
aS'http://scontent-b.cdninstagram.com/hphotos-xpf1/t51.2885-15/10413113_332339053587345_1386943984_n.jpg'
p35
aS'http://scontent-b.cdninstagram.com/hphotos-xfp1/t51.2885-15/10483488_1446420908948731_651633508_n.jpg'
p36
aS'http://scontent-b.cdninstagram.com/hphotos-xpa1/t51.2885-15/923665_593788597387136_1315201036_n.jpg'
p37
aS'http://scontent-b.cdninstagram.com/hphotos-prn/t51.2885-15/10448840_745696025472996_2106607441_n.jpg'
p38
aS'http://scontent-b.cdninstagram.com/hphotos-xpa1/t51.2885-15/10449135_1440821529502216_1843160429_n.jpg'
p39
aS'http://scontent-b.cdninstagram.com/hphotos-xaf1/t51.2885-15/10413234_800711063273004_995873300_n.jpg'
p40
aS'http://scontent-a.cdninstagram.com/hphotos-xpa1/t51.2885-15/10449017_518272411632179_641993911_n.jpg'
p41
aS'http://scontent-a.cdninstagram.com/hphotos-xap1/t51.2885-15/10387827_733789383352029_1903512033_n.jpg'
p42
aS'http://scontent-a.cdninstagram.com/hphotos-xpa1/t51.2885-15/10431940_332497080231959_1621497833_n.jpg'
p43
aS'http://scontent-a.cdninstagram.com/hphotos-prn/t51.2885-15/929136_1481823822053362_1152806495_n.jpg'
p44
aS'http://scontent-a.cdninstagram.com/hphotos-xaf1/t51.2885-15/10375626_240351102830477_142589672_n.jpg'
p45
asS'Food'
p46
(lp47
S'http://scontent-a.cdninstagram.com/hphotos-xpa1/t51.2885-15/10520330_1517519231798188_2064433273_n.jpg'
p48
aS'http://scontent-a.cdninstagram.com/hphotos-xpf1/t51.2885-15/10326507_721584814573268_1380364635_n.jpg'
p49
aS'http://scontent-a.cdninstagram.com/hphotos-xaf1/t51.2885-15/10570171_657051014382723_1969337992_n.jpg'
p50
aS'http://scontent-b.cdninstagram.com/hphotos-xfa1/t51.2885-15/10561054_1443970652532484_1712819233_n.jpg'
p51
aS'http://scontent-a.cdninstagram.com/hphotos-xpf1/t51.2885-15/10546637_795426053821628_738363443_n.jpg'
p52
aS'http://scontent-b.cdninstagram.com/hphotos-xpa1/t51.2885-15/924875_1500967206805314_386231863_n.jpg'
p53
aS'http://scontent-a.cdninstagram.com/hphotos-xaf1/t51.2885-15/10554084_259444374254363_1672184274_n.jpg'
p54
aS'http://scontent-b.cdninstagram.com/hphotos-xap1/t51.2885-15/10507920_680433065372904_1198916496_n.jpg'
p55
aS'http://scontent-a.cdninstagram.com/hphotos-xfa1/t51.2885-15/10554076_273860806131335_459404644_n.jpg'
p56
aS'http://scontent-a.cdninstagram.com/hphotos-xpa1/t51.2885-15/10483439_678199645567831_2059776674_n.jpg'
p57
aS'http://scontent-b.cdninstagram.com/hphotos-xpa1/t51.2885-15/10251434_652761474805492_2127779172_n.jpg'
p58
aS'http://scontent-a.cdninstagram.com/hphotos-xap1/t51.2885-15/10520172_817880141569692_925009851_n.jpg'
p59
aS'http://scontent-b.cdninstagram.com/hphotos-xpa1/t51.2885-15/924031_755666374484122_693563130_n.jpg'
p60
aS'http://scontent-b.cdninstagram.com/hphotos-xfp1/t51.2885-15/10483615_1496386787265484_1897885812_n.jpg'
p61
aS'http://scontent-a.cdninstagram.com/hphotos-xap1/t51.2885-15/10534983_701212879913877_698693032_n.jpg'
p62
aS'http://scontent-a.cdninstagram.com/hphotos-xpf1/t51.2885-15/10549640_1503620499869591_961622523_n.jpg'
p63
aS'http://scontent-a.cdninstagram.com/hphotos-xpf1/t51.2885-15/10471855_1519728444913501_47539044_n.jpg'
p64
aS'http://scontent-a.cdninstagram.com/hphotos-xaf1/t51.2885-15/914403_297143027123869_1843177552_n.jpg'
p65
aS'http://scontent-a.cdninstagram.com/hphotos-xpf1/t51.2885-15/10483546_903949522955294_564368021_n.jpg'
p66
aS'http://scontent-a.cdninstagram.com/hphotos-xfp1/t51.2885-15/10547355_325716137585145_559090506_n.jpg'
p67
aS'http://scontent-a.cdninstagram.com/hphotos-xpa1/t51.2885-15/10413842_731746046887539_1082457490_n.jpg'
p68
aS'http://scontent-b.cdninstagram.com/hphotos-xap1/t51.2885-15/10508067_679902302062995_1670705281_n.jpg'
p69
aS'http://scontent-a.cdninstagram.com/hphotos-xpa1/t51.2885-15/10537936_763157360415050_1153473534_n.jpg'
p70
aS'http://scontent-a.cdninstagram.com/hphotos-xpf1/t51.2885-15/10513933_251955171667929_956886081_n.jpg'
p71
aS'http://scontent-b.cdninstagram.com/hphotos-xpa1/t51.2885-15/10472023_434913763317201_525926571_n.jpg'
p72
aS'http://scontent-b.cdninstagram.com/hphotos-xap1/t51.2885-15/10533591_1508301772716996_767062230_n.jpg'
p73
aS'http://scontent-a.cdninstagram.com/hphotos-xpa1/t51.2885-15/10431940_478036015673540_1497375840_n.jpg'
p74
aS'http://scontent-a.cdninstagram.com/hphotos-xpa1/t51.2885-15/10387819_654106411348574_102239886_n.jpg'
p75
aS'http://scontent-b.cdninstagram.com/hphotos-xap1/t51.2885-15/10533045_312590932236618_309638192_n.jpg'
p76
aS'http://scontent-a.cdninstagram.com/hphotos-xap1/t51.2885-15/10499188_732368156822701_766710190_n.jpg'
p77
aS'http://scontent-a.cdninstagram.com/hphotos-xpa1/t51.2885-15/10467806_681636535249054_399236803_n.jpg'
p78
aS'http://scontent-a.cdninstagram.com/hphotos-xfa1/t51.2885-15/915605_268582343327785_1912566470_n.jpg'
p79
aS'http://scontent-a.cdninstagram.com/hphotos-xfa1/t51.2885-15/10507936_259662414238808_2014525632_n.jpg'
p80
aS'http://scontent-b.cdninstagram.com/hphotos-xap1/t51.2885-15/10518039_690077397745054_1966285228_n.jpg'
p81
aS'http://scontent-b.cdninstagram.com/hphotos-xfp1/t51.2885-15/10326606_319795614811730_383414279_n.jpg'
p82
aS'http://scontent-b.cdninstagram.com/hphotos-xpf1/t51.2885-15/10454095_777927125561882_1347888759_n.jpg'
p83
aS'http://scontent-b.cdninstagram.com/hphotos-xfp1/t51.2885-15/10467865_539735202798929_217030242_n.jpg'
p84
aS'http://scontent-b.cdninstagram.com/hphotos-xfp1/t51.2885-15/10454005_1446381502278417_1229270807_n.jpg'
p85
aS'http://scontent-a.cdninstagram.com/hphotos-xpa1/t51.2885-15/10387928_326769794154961_1495817899_n.jpg'
p86
aS'http://scontent-b.cdninstagram.com/hphotos-xap1/t51.2885-15/10483344_1435682223374289_432222683_n.jpg'
p87
aS'http://scontent-a.cdninstagram.com/hphotos-xpa1/t51.2885-15/928580_322771201211393_710884563_n.jpg'
p88
aS'http://scontent-a.cdninstagram.com/hphotos-xpf1/t51.2885-15/10449059_815010671851014_596889612_n.jpg'
p89
aS'http://scontent-a.cdninstagram.com/hphotos-xpa1/t51.2885-15/1515463_1447177658868380_136876466_n.jpg'
p90
aS'http://scontent-b.cdninstagram.com/hphotos-xfp1/l/t51.2885-15/10471797_779956818705038_1468015648_n.jpg'
p91
aS'http://scontent-a.cdninstagram.com/hphotos-xfp1/t51.2885-15/10483395_329366687220210_382694378_n.jpg'
p92
aS'http://scontent-a.cdninstagram.com/hphotos-xpf1/t51.2885-15/10414054_855201011175544_745797013_n.jpg'
p93
aS'http://scontent-a.cdninstagram.com/hphotos-prn/t51.2885-15/10448932_1425304977755164_1155481661_n.jpg'
p94
aS'http://scontent-b.cdninstagram.com/hphotos-xfp1/t51.2885-15/10467817_1456861211228640_184557381_n.jpg'
p95
aS'http://scontent-a.cdninstagram.com/hphotos-xpf1/t51.2885-15/10424585_525604270873881_2023849403_n.jpg'
p96
aS'http://scontent-a.cdninstagram.com/hphotos-xpf1/t51.2885-15/10413076_263517927165616_1919900792_n.jpg'
p97
aS'http://scontent-b.cdninstagram.com/hphotos-prn/t51.2885-15/10448959_452547678215734_1597601781_n.jpg'
p98
aS'http://scontent-b.cdninstagram.com/hphotos-xap1/t51.2885-15/10432077_1504450343118660_1591544435_n.jpg'
p99
aS'http://scontent-a.cdninstagram.com/hphotos-xfp1/t51.2885-15/10413930_651037921651383_1926271344_n.jpg'
p100
aS'http://scontent-b.cdninstagram.com/hphotos-xfp1/t51.2885-15/10401641_282549968593935_537462701_n.jpg'
p101
aS'http://scontent-a.cdninstagram.com/hphotos-xpa1/t51.2885-15/10472006_608756422555206_1458703876_n.jpg'
p102
asS'foursquareID'
p103
S'4c05a764191f20a11473e314'
p104
sS'Reject'
p105
(lp106
S'http://scontent-a.cdninstagram.com/hphotos-xfa1/t51.2885-15/10570046_822771421088826_1431955464_n.jpg'
p107
aS'http://scontent-b.cdninstagram.com/hphotos-xap1/t51.2885-15/10537998_299371316909891_1528124511_n.jpg'
p108
aS'http://scontent-b.cdninstagram.com/hphotos-xfa1/t51.2885-15/914453_449823695159983_307218022_n.jpg'
p109
aS'http://scontent-b.cdninstagram.com/hphotos-xap1/t51.2885-15/10523271_530179313748838_1101655703_n.jpg'
p110
aS'http://scontent-a.cdninstagram.com/hphotos-xpa1/t51.2885-15/923687_786933887994358_806353382_n.jpg'
p111
aS'http://scontent-b.cdninstagram.com/hphotos-xfp1/t51.2885-15/10554271_261966343997898_683490895_n.jpg'
p112
aS'http://scontent-a.cdninstagram.com/hphotos-xpa1/t51.2885-15/925322_509593302520807_1877038938_n.jpg'
p113
aS'http://scontent-a.cdninstagram.com/hphotos-xap1/t51.2885-15/10507812_734825253250797_60102904_n.jpg'
p114
aS'http://scontent-a.cdninstagram.com/hphotos-xap1/t51.2885-15/10513971_755400114503909_437869894_n.jpg'
p115
aS'http://scontent-a.cdninstagram.com/hphotos-xfp1/t51.2885-15/10547178_603256459787897_360089939_n.jpg'
p116
aS'http://scontent-a.cdninstagram.com/hphotos-xpa1/t51.2885-15/1599820_1503219253247200_453408614_n.jpg'
p117
aS'http://scontent-a.cdninstagram.com/hphotos-xfp1/t51.2885-15/10547283_249084135290556_1396202875_n.jpg'
p118
aS'http://scontent-b.cdninstagram.com/hphotos-xpa1/t51.2885-15/927382_666455130104105_65449183_n.jpg'
p119
aS'http://scontent-b.cdninstagram.com/hphotos-xap1/t51.2885-15/10523250_316534031855955_1175373038_n.jpg'
p120
aS'http://scontent-a.cdninstagram.com/hphotos-xpf1/t51.2885-15/10543574_775588302507942_1228636607_n.jpg'
p121
aS'http://scontent-b.cdninstagram.com/hphotos-xpa1/t51.2885-15/10518215_815327161833485_37890163_n.jpg'
p122
aS'http://scontent-a.cdninstagram.com/hphotos-xpa1/t51.2885-15/10499258_649799888441362_1375964258_n.jpg'
p123
aS'http://scontent-b.cdninstagram.com/hphotos-xap1/t51.2885-15/10514046_1507618456133791_55542182_n.jpg'
p124
aS'http://scontent-b.cdninstagram.com/hphotos-xaf1/t51.2885-15/915597_492935597518353_84024588_n.jpg'
p125
aS'http://scontent-a.cdninstagram.com/hphotos-xpa1/t51.2885-15/10533041_1508272386058091_1292051546_n.jpg'
p126
aS'http://scontent-a.cdninstagram.com/hphotos-xpa1/t51.2885-15/10514029_697463510337930_176513740_n.jpg'
p127
aS'http://scontent-a.cdninstagram.com/hphotos-xaf1/t51.2885-15/914406_1595121237381009_548788900_n.jpg'
p128
aS'http://scontent-b.cdninstagram.com/hphotos-xpf1/t51.2885-15/10546841_687187008020173_671048844_n.jpg'
p129
ag129
aS'http://scontent-a.cdninstagram.com/hphotos-xfp1/t51.2885-15/891430_907205475961295_917607899_n.jpg'
p130
aS'http://scontent-b.cdninstagram.com/hphotos-xpa1/t51.2885-15/10540268_1499530920284030_1985009294_n.jpg'
p131
aS'http://scontent-a.cdninstagram.com/hphotos-xap1/t51.2885-15/1172016_1455658328035322_881082781_n.jpg'
p132
aS'http://scontent-a.cdninstagram.com/hphotos-xpf1/t51.2885-15/10467902_698141666889986_1901956148_n.jpg'
p133
aS'http://scontent-b.cdninstagram.com/hphotos-xpf1/t51.2885-15/10536880_306062856235411_1600123026_n.jpg'
p134
aS'http://scontent-b.cdninstagram.com/hphotos-xfp1/t51.2885-15/10467705_633059133451293_1324661551_n.jpg'
p135
aS'http://scontent-a.cdninstagram.com/hphotos-xpa1/t51.2885-15/928003_691706940908586_639759813_n.jpg'
p136
aS'http://scontent-a.cdninstagram.com/hphotos-xfp1/t51.2885-15/10536876_652225024869456_563876415_n.jpg'
p137
aS'http://scontent-b.cdninstagram.com/hphotos-xap1/t51.2885-15/10508022_539006046210973_1028621311_n.jpg'
p138
ag72
aS'http://scontent-a.cdninstagram.com/hphotos-prn/t51.2885-15/10523509_698282416886672_840139644_n.jpg'
p139
aS'http://scontent-b.cdninstagram.com/hphotos-xap1/l/t51.2885-15/924018_281683422011337_1104670142_n.jpg'
p140
aS'http://scontent-a.cdninstagram.com/hphotos-xpa1/t51.2885-15/10514113_338609482959312_1798204442_n.jpg'
p141
ag22
aS'http://scontent-a.cdninstagram.com/hphotos-xpa1/t51.2885-15/10520333_1433288960283292_2121895732_n.jpg'
p142
aS'http://scontent-b.cdninstagram.com/hphotos-xpa1/t51.2885-15/10520201_646624992086006_492362604_n.jpg'
p143
aS'http://scontent-b.cdninstagram.com/hphotos-xpa1/t51.2885-15/10513912_1444433832477793_9104382_n.jpg'
p144
aS'http://scontent-b.cdninstagram.com/hphotos-xfp1/t51.2885-15/10432023_335286959929712_274180636_n.jpg'
p145
aS'http://scontent-b.cdninstagram.com/hphotos-xpf1/t51.2885-15/10467868_734975163215163_1624876516_n.jpg'
p146
aS'http://scontent-a.cdninstagram.com/hphotos-xap1/t51.2885-15/10453857_1518499311703707_445789999_n.jpg'
p147
aS'http://scontent-b.cdninstagram.com/hphotos-xfa1/t51.2885-15/10507786_250579228467551_602115756_n.jpg'
p148
aS'http://scontent-b.cdninstagram.com/hphotos-xpa1/t51.2885-15/10499261_1450539328534095_1810013785_n.jpg'
p149
aS'http://scontent-a.cdninstagram.com/hphotos-xpa1/t51.2885-15/10454105_1466320836947294_1677463207_n.jpg'
p150
aS'http://scontent-b.cdninstagram.com/hphotos-xpf1/t51.2885-15/10454108_1419125825041817_1714558437_n.jpg'
p151
aS'http://scontent-b.cdninstagram.com/hphotos-xpf1/t51.2885-15/10448906_307320162777402_935082408_n.jpg'
p152
aS'http://scontent-b.cdninstagram.com/hphotos-xpa1/t51.2885-15/923650_667331773344666_621331526_n.jpg'
p153
ag88
ag31
aS'http://scontent-b.cdninstagram.com/hphotos-xpf1/t51.2885-15/10475075_689265017788060_1532602469_n.jpg'
p154
aS'http://scontent-b.cdninstagram.com/hphotos-xap1/t51.2885-15/928281_312210638945230_2015853780_n.jpg'
p155
aS'http://scontent-a.cdninstagram.com/hphotos-xap1/t51.2885-15/927699_1572572812969269_1140909018_n.jpg'
p156
aS'http://scontent-b.cdninstagram.com/hphotos-xfa1/t51.2885-15/914374_734910563233055_121555273_n.jpg'
p157
ag93
ag95
aS'http://scontent-a.cdninstagram.com/hphotos-prn/t51.2885-15/929120_331147267034918_986305932_n.jpg'
p158
aS'http://scontent-b.cdninstagram.com/hphotos-xpa1/t51.2885-15/10388002_797507876934396_1180840988_n.jpg'
p159
aS'http://scontent-b.cdninstagram.com/hphotos-xfp1/t51.2885-15/10349664_485522531583346_133240387_n.jpg'
p160
ag99
ag160
aS'http://scontent-a.cdninstagram.com/hphotos-xap1/t51.2885-15/10472016_296141417227973_971056839_n.jpg'
p161
asS'urlList'
p162
(lp163
g48
ag49
ag6
ag50
ag7
ag107
ag108
ag8
ag109
ag9
ag110
ag111
ag112
ag10
ag113
ag11
ag12
ag114
ag115
ag51
ag52
ag13
ag53
ag116
ag54
ag117
ag118
ag119
ag55
ag120
ag121
ag56
ag122
ag123
ag124
ag57
ag125
ag58
ag126
ag59
ag60
ag14
ag15
ag127
ag61
ag128
ag16
ag129
ag130
ag62
ag63
ag17
ag64
ag65
ag66
ag67
ag18
ag131
ag68
ag69
ag132
ag70
ag133
ag71
ag134
ag135
ag136
ag19
ag137
ag138
ag72
ag73
ag20
ag21
ag74
ag75
ag139
ag140
ag76
ag77
ag78
ag79
ag141
ag22
ag80
ag142
ag81
ag143
ag23
ag144
ag82
ag145
ag146
ag147
ag24
ag148
ag83
ag25
ag84
ag26
ag149
ag27
ag150
ag85
ag86
ag151
ag87
ag28
ag152
ag29
ag153
ag30
ag31
ag88
ag89
ag90
ag154
ag91
ag32
ag155
ag33
ag92
ag156
ag157
ag34
ag93
ag94
ag35
ag36
ag95
ag37
ag38
ag96
ag97
ag39
ag98
ag40
ag158
ag159
ag41
ag42
ag99
ag160
ag43
ag44
ag45
ag161
ag100
ag101
ag102
asS'Blurry'
p164
(lp165
sb.