(i__main__
Restaurant
p0
(dp1
S'NoPeople'
p2
(lp3
sS'People'
p4
(lp5
S'http://scontent-a.cdninstagram.com/hphotos-xaf1/outbound-distilleryimage3/t0.0-17/OBPTH/cda8e61ea95511e3aa45123fe2c0d3cb_7.jpg'
p6
aS'http://scontent-b.cdninstagram.com/hphotos-xfp1/outbound-distilleryimage10/t0.0-17/OBPTH/6840b39aa86c11e3b8a7123c58805256_8.jpg'
p7
aS'http://scontent-b.cdninstagram.com/hphotos-xfp1/outbound-distilleryimage11/t0.0-17/OBPTH/0ec4c74aa81a11e3b1a41225198f21ef_8.jpg'
p8
aS'http://scontent-a.cdninstagram.com/hphotos-xaf1/outbound-distilleryimage8/t0.0-17/OBPTH/7e3da02ca81211e38dfc0e96a2f1168c_8.jpg'
p9
aS'http://scontent-a.cdninstagram.com/hphotos-xaf1/outbound-distilleryimage6/t0.0-17/OBPTH/448765d6a81011e39b501254994b6a4e_8.jpg'
p10
aS'http://scontent-a.cdninstagram.com/hphotos-xpa1/outbound-distilleryimage1/t0.0-17/OBPTH/4f6f1968a80a11e387e21288611c7ec9_8.jpg'
p11
aS'http://scontent-b.cdninstagram.com/hphotos-xfp1/outbound-distilleryimage7/t0.0-17/OBPTH/2297d78ca80411e393a00e5d5ec921df_8.jpg'
p12
aS'http://scontent-a.cdninstagram.com/hphotos-xfa1/outbound-distilleryimage9/t0.0-17/OBPTH/373fd302a7c211e3bc1b0e560c5e4f79_8.jpg'
p13
aS'http://scontent-b.cdninstagram.com/hphotos-xpf1/outbound-distilleryimage3/t0.0-17/OBPTH/939a8b14a73211e38ffe12ded5001997_8.jpg'
p14
aS'http://scontent-a.cdninstagram.com/hphotos-xpa1/outbound-distilleryimage7/t0.0-17/OBPTH/77b9a02ca55e11e3b06a0ec1ac4481f7_8.jpg'
p15
aS'http://scontent-b.cdninstagram.com/hphotos-xpf1/outbound-distilleryimage6/t0.0-17/OBPTH/35001e92a42211e3aa6712e1292e3dd2_8.jpg'
p16
aS'http://scontent-a.cdninstagram.com/hphotos-xfa1/outbound-distilleryimage3/t0.0-17/OBPTH/d1d2ef58a24f11e392771260b9cfad3f_8.jpg'
p17
aS'http://scontent-a.cdninstagram.com/hphotos-xpa1/outbound-distilleryimage3/t0.0-17/OBPTH/7d300b1ca18111e38302122de019cc27_8.jpg'
p18
aS'http://scontent-a.cdninstagram.com/hphotos-xfa1/outbound-distilleryimage9/t0.0-17/OBPTH/9a7b0254a12111e39691126acd5603fd_8.jpg'
p19
aS'http://scontent-b.cdninstagram.com/hphotos-xfp1/outbound-distilleryimage3/t0.0-17/OBPTH/0f3e8f34a11311e3a01312fc9df32403_8.jpg'
p20
aS'http://scontent-a.cdninstagram.com/hphotos-xfa1/outbound-distilleryimage7/t0.0-17/OBPTH/4aaede74a04c11e3984d0ef0b4480ed3_8.jpg'
p21
aS'http://scontent-a.cdninstagram.com/hphotos-xpf1/t51.2885-15/1515477_357853367685888_1868378248_n.jpg'
p22
aS'http://scontent-b.cdninstagram.com/hphotos-xap1/t51.2885-15/1739679_699619983421882_186681670_n.jpg'
p23
aS'http://scontent-b.cdninstagram.com/hphotos-xaf1/t51.2885-15/1739674_742288212450666_1235100955_n.jpg'
p24
aS'http://scontent-b.cdninstagram.com/hphotos-xpa1/t51.2885-15/1962890_531818733599130_1143092429_n.jpg'
p25
aS'http://scontent-a.cdninstagram.com/hphotos-xaf1/t51.2885-15/1739011_1409869845933696_2110028376_n.jpg'
p26
aS'http://scontent-a.cdninstagram.com/hphotos-xfa1/outbound-distilleryimage0/t0.0-17/OBPTH/1c70c1ce99b411e3864a1214b0ba1990_8.jpg'
p27
aS'http://scontent-b.cdninstagram.com/hphotos-xpf1/outbound-distilleryimage0/t0.0-17/OBPTH/0661b4aa999711e39ac712a693e082b8_8.jpg'
p28
aS'http://scontent-a.cdninstagram.com/hphotos-xpa1/t51.2885-15/1799674_271384206354011_846816411_n.jpg'
p29
aS'http://scontent-a.cdninstagram.com/hphotos-xaf1/t51.2885-15/1799556_276695959150374_771823632_n.jpg'
p30
aS'http://scontent-a.cdninstagram.com/hphotos-xaf1/t51.2885-15/1739353_281497572002987_1844296104_n.jpg'
p31
aS'http://scontent-a.cdninstagram.com/hphotos-xfp1/t51.2885-15/1690687_283579688460162_1363738259_n.jpg'
p32
aS'http://scontent-b.cdninstagram.com/hphotos-xap1/t51.2885-15/1740870_277759602378634_119579417_n.jpg'
p33
aS'http://scontent-b.cdninstagram.com/hphotos-xfa1/t51.2885-15/1738322_748671838478785_326876454_n.jpg'
p34
aS'http://scontent-b.cdninstagram.com/hphotos-xaf1/t51.2885-15/1799676_218020941723874_563792607_n.jpg'
p35
aS'http://scontent-b.cdninstagram.com/hphotos-xap1/t51.2885-15/1660269_284223008392517_1782268103_n.jpg'
p36
aS'http://scontent-b.cdninstagram.com/hphotos-xpf1/t51.2885-15/1889255_1468825743339058_1048255362_n.jpg'
p37
aS'http://scontent-b.cdninstagram.com/hphotos-xfp1/t51.2885-15/1740199_1447218502176906_1152111292_n.jpg'
p38
aS'http://scontent-b.cdninstagram.com/hphotos-xaf1/t51.2885-15/1723614_802921099735745_1983571076_n.jpg'
p39
aS'http://scontent-b.cdninstagram.com/hphotos-xaf1/t51.2885-15/1739184_454228534677900_1039008814_n.jpg'
p40
aS'http://scontent-b.cdninstagram.com/hphotos-xpa1/t51.2885-15/1741340_444156682384682_886578974_n.jpg'
p41
aS'http://scontent-a.cdninstagram.com/hphotos-xfa1/t51.2885-15/1889193_210996199098697_1825065736_n.jpg'
p42
aS'http://scontent-b.cdninstagram.com/hphotos-xfp1/t51.2885-15/1599984_262220207275757_809167476_n.jpg'
p43
aS'http://scontent-b.cdninstagram.com/hphotos-xpa1/t51.2885-15/928445_1420750301500847_1282271525_n.jpg'
p44
aS'http://scontent-a.cdninstagram.com/hphotos-xap1/t51.2885-15/1599900_1422412897999338_2026173491_n.jpg'
p45
aS'http://scontent-a.cdninstagram.com/hphotos-xpa1/t51.2885-15/926644_194013160808462_1898718587_n.jpg'
p46
aS'http://scontent-a.cdninstagram.com/hphotos-xfa1/t51.2885-15/1741354_669892309733782_1665245935_n.jpg'
p47
aS'http://scontent-b.cdninstagram.com/hphotos-xpf1/t51.2885-15/1171636_1465650040322878_1292877200_n.jpg'
p48
aS'http://scontent-b.cdninstagram.com/hphotos-xpa1/t51.2885-15/926077_1458663787686975_1635542904_n.jpg'
p49
aS'http://scontent-b.cdninstagram.com/hphotos-xap1/t51.2885-15/1597809_660597540670306_2121108751_n.jpg'
p50
asS'Food'
p51
(lp52
S'http://scontent-a.cdninstagram.com/hphotos-xpa1/outbound-distilleryimage7/t0.0-17/OBPTH/bf41f22ea95911e39a630ed4b936de13_8.jpg'
p53
aS'http://scontent-a.cdninstagram.com/hphotos-xpa1/outbound-distilleryimage11/t0.0-17/OBPTH/148d80a2a83011e38e7212ab75739faf_8.jpg'
p54
aS'http://scontent-b.cdninstagram.com/hphotos-xap1/outbound-distilleryimage3/t0.0-17/OBPTH/756fe608a7db11e381d712615f374a93_8.jpg'
p55
aS'http://scontent-b.cdninstagram.com/hphotos-xap1/outbound-distilleryimage9/t0.0-17/OBPTH/75c71e56a79411e3962e0e29dfb0a995_8.jpg'
p56
aS'http://scontent-b.cdninstagram.com/hphotos-xfp1/outbound-distilleryimage3/t0.0-17/OBPTH/eac8662aa71111e3b0391231e80ea787_8.jpg'
p57
aS'http://scontent-b.cdninstagram.com/hphotos-xpf1/outbound-distilleryimage9/t0.0-17/OBPTH/634a93b2a64911e38c8012bf74679159_8.jpg'
p58
aS'http://scontent-b.cdninstagram.com/hphotos-xap1/outbound-distilleryimage10/t0.0-17/OBPTH/e671dd80a64511e39bc4122b889f396a_8.jpg'
p59
aS'http://scontent-b.cdninstagram.com/hphotos-xfp1/outbound-distilleryimage7/t0.0-17/OBPTH/cc4cbaf2a63011e394cf0e4813961543_8.jpg'
p60
aS'http://scontent-a.cdninstagram.com/hphotos-xaf1/outbound-distilleryimage0/t0.0-17/OBPTH/2d398ad8a19b11e3a60a12d5063491c0_8.jpg'
p61
aS'http://scontent-a.cdninstagram.com/hphotos-xaf1/t51.2885-15/1738761_250325928481581_2086896670_n.jpg'
p62
aS'http://scontent-a.cdninstagram.com/hphotos-xap1/t51.2885-15/927858_235262316659238_170687120_n.jpg'
p63
aS'http://scontent-a.cdninstagram.com/hphotos-xpa1/t51.2885-15/1661755_1487171051510091_2106439671_n.jpg'
p64
aS'http://scontent-b.cdninstagram.com/hphotos-xap1/t51.2885-15/1922451_1409949892589483_1970675309_n.jpg'
p65
aS'http://scontent-b.cdninstagram.com/hphotos-xap1/t51.2885-15/1741947_209380182593740_1784831394_n.jpg'
p66
aS'http://scontent-b.cdninstagram.com/hphotos-xaf1/t51.2885-15/1689708_1391853754413340_851372317_n.jpg'
p67
aS'http://scontent-a.cdninstagram.com/hphotos-xfa1/t51.2885-15/1740472_1531262193766041_1228772191_n.jpg'
p68
aS'http://scontent-a.cdninstagram.com/hphotos-xpa1/t51.2885-15/928469_425548317575437_99721618_n.jpg'
p69
aS'http://scontent-b.cdninstagram.com/hphotos-xaf1/t51.2885-15/917359_356264551181844_663544217_n.jpg'
p70
aS'http://scontent-b.cdninstagram.com/hphotos-xpf1/t51.2885-15/1724143_1419477054961907_37955074_n.jpg'
p71
aS'http://scontent-a.cdninstagram.com/hphotos-xap1/t51.2885-15/927246_517838081667228_1709497176_n.jpg'
p72
aS'http://scontent-a.cdninstagram.com/hphotos-xpa1/t51.2885-15/1169707_592849767465782_1709231446_n.jpg'
p73
aS'http://scontent-b.cdninstagram.com/hphotos-xfa1/t51.2885-15/1739562_1406035829648589_1577159413_n.jpg'
p74
asS'foursquareID'
p75
S'435d7580f964a5201a291fe3'
p76
sS'Reject'
p77
(lp78
S'http://scontent-b.cdninstagram.com/hphotos-xfp1/outbound-distilleryimage6/t0.0-17/OBPTH/44dc6604a9fe11e38add1240bd2c384e_8.jpg'
p79
aS'http://scontent-b.cdninstagram.com/hphotos-xap1/outbound-distilleryimage0/t0.0-17/OBPTH/cd662472a9a611e38318125f440b459c_8.jpg'
p80
aS'http://scontent-a.cdninstagram.com/hphotos-xaf1/outbound-distilleryimage8/t0.0-17/OBPTH/706a6b0aa96211e3b2e0121b6f9dd0b4_8.jpg'
p81
ag6
aS'http://scontent-a.cdninstagram.com/hphotos-xfa1/outbound-distilleryimage4/t0.0-17/OBPTH/d2c56d28a86c11e38e9b0e837b4b9c28_8.jpg'
p82
aS'http://scontent-a.cdninstagram.com/hphotos-xfa1/outbound-distilleryimage3/t0.0-17/OBPTH/bb788aeca86c11e39c5f12f4ef299e17_8.jpg'
p83
ag7
aS'http://scontent-b.cdninstagram.com/hphotos-xpf1/outbound-distilleryimage1/t0.0-17/OBPTH/45b09964a80b11e3b33a12e185860505_8.jpg'
p84
aS'http://scontent-b.cdninstagram.com/hphotos-xpf1/outbound-distilleryimage5/t0.0-17/OBPTH/f862f7c0a80911e3bd140e560a0bdf91_8.jpg'
p85
aS'http://scontent-b.cdninstagram.com/hphotos-xfp1/outbound-distilleryimage7/t0.0-17/OBPTH/e6b1739ca7f711e39eb80e9a72e0e137_7.jpg'
p86
aS'http://scontent-a.cdninstagram.com/hphotos-xaf1/outbound-distilleryimage7/t0.0-17/OBPTH/f89892faa79511e3b66912c7a3d9dd33_8.jpg'
p87
aS'http://scontent-a.cdninstagram.com/hphotos-xfa1/outbound-distilleryimage11/t0.0-17/OBPTH/6a80cc1ca79511e38f8812f348bd88bb_8.jpg'
p88
aS'http://scontent-a.cdninstagram.com/hphotos-xaf1/outbound-distilleryimage0/t0.0-17/OBPTH/5ea6d19aa74811e396030e757d22c9e0_8.jpg'
p89
aS'http://scontent-b.cdninstagram.com/hphotos-xpf1/outbound-distilleryimage11/t0.0-17/OBPTH/dcf15e9ca74511e3a5c71250dc374587_8.jpg'
p90
aS'http://scontent-a.cdninstagram.com/hphotos-xfa1/outbound-distilleryimage5/t0.0-17/OBPTH/eb54a712a73311e3b5400e80656d07cd_8.jpg'
p91
aS'http://scontent-a.cdninstagram.com/hphotos-xaf1/outbound-distilleryimage1/t0.0-17/OBPTH/c8ffa240a6ff11e395c312f4a385c1a1_8.jpg'
p92
aS'http://scontent-b.cdninstagram.com/hphotos-xfp1/outbound-distilleryimage6/t0.0-17/OBPTH/7bd4c836a69d11e3b330122dbaf13212_8.jpg'
p93
aS'http://scontent-a.cdninstagram.com/hphotos-xfa1/outbound-distilleryimage1/t0.0-17/OBPTH/22f1449ca67f11e3af360e35a5d477f9_8.jpg'
p94
aS'http://scontent-a.cdninstagram.com/hphotos-xpa1/outbound-distilleryimage8/t0.0-17/OBPTH/a98b0a5aa64911e382ef125cd204e408_8.jpg'
p95
aS'http://scontent-b.cdninstagram.com/hphotos-xfp1/outbound-distilleryimage5/t0.0-17/OBPTH/a7377050a5c111e3b2570e65d17ed6f1_8.jpg'
p96
aS'http://scontent-b.cdninstagram.com/hphotos-xpf1/outbound-distilleryimage4/t0.0-17/OBPTH/f02cd86ca59a11e398bc12834a966ab4_8.jpg'
p97
aS'http://scontent-a.cdninstagram.com/hphotos-xaf1/outbound-distilleryimage6/t0.0-17/OBPTH/52e5e8cea43111e3b7780e58c3aab5ae_8.jpg'
p98
aS'http://scontent-b.cdninstagram.com/hphotos-xpf1/outbound-distilleryimage9/t0.0-17/OBPTH/ebf52acea42d11e39934128dfbc5ee3d_8.jpg'
p99
aS'http://scontent-b.cdninstagram.com/hphotos-xap1/outbound-distilleryimage9/t0.0-17/OBPTH/5494df10a40211e38deb0a27ea2a0b69_8.jpg'
p100
aS'http://scontent-a.cdninstagram.com/hphotos-xfa1/outbound-distilleryimage6/t0.0-17/OBPTH/47a05d4aa2c011e3b2540eed5f71112a_8.jpg'
p101
aS'http://scontent-a.cdninstagram.com/hphotos-xaf1/outbound-distilleryimage7/t0.0-17/OBPTH/c2e3c7dea26211e388461216e3bba0d3_8.jpg'
p102
aS'http://scontent-b.cdninstagram.com/hphotos-xfp1/outbound-distilleryimage3/t0.0-17/OBPTH/54c3a764a1af11e389ad0edc7ffa5063_8.jpg'
p103
aS'http://scontent-b.cdninstagram.com/hphotos-xap1/outbound-distilleryimage9/t0.0-17/OBPTH/77acbc0ea1a811e39adb1273d8aecb25_8.jpg'
p104
aS'http://scontent-a.cdninstagram.com/hphotos-xfa1/outbound-distilleryimage11/t0.0-17/OBPTH/219b5944a10b11e3ae61124e6a3966f7_8.jpg'
p105
aS'http://scontent-b.cdninstagram.com/hphotos-xfp1/outbound-distilleryimage4/t0.0-17/OBPTH/b6488122a0d711e398fb0aa4c3a13324_8.jpg'
p106
aS'http://scontent-b.cdninstagram.com/hphotos-xfa1/l/t51.2885-15/1740880_1451394328425702_1725632105_n.jpg'
p107
aS'http://scontent-b.cdninstagram.com/hphotos-xpa1/t51.2885-15/926663_586149898142259_1541293155_n.jpg'
p108
aS'http://scontent-a.cdninstagram.com/hphotos-xfp1/t51.2885-15/1171755_221660598037921_1869124069_n.jpg'
p109
aS'http://scontent-b.cdninstagram.com/hphotos-xap1/t51.2885-15/1743099_226602907537794_725505222_n.jpg'
p110
aS'http://scontent-a.cdninstagram.com/hphotos-xaf1/t51.2885-15/1799688_599259113500481_485637031_n.jpg'
p111
aS'http://scontent-b.cdninstagram.com/hphotos-xap1/t51.2885-15/1799661_410447125757794_1494115121_n.jpg'
p112
aS'http://scontent-a.cdninstagram.com/hphotos-xpa1/t51.2885-15/1663013_557116947718516_1399346949_n.jpg'
p113
aS'http://scontent-a.cdninstagram.com/hphotos-xfp1/t51.2885-15/1737121_409863762483511_1782073983_n.jpg'
p114
aS'http://scontent-b.cdninstagram.com/hphotos-xpf1/t51.2885-15/1660409_246508455529363_20439906_n.jpg'
p115
aS'http://scontent-b.cdninstagram.com/hphotos-xfp1/t51.2885-15/1737629_234037136779559_19862007_n.jpg'
p116
aS'http://scontent-a.cdninstagram.com/hphotos-xpf1/t51.2885-15/1922099_355785954560535_961751544_n.jpg'
p117
aS'http://scontent-b.cdninstagram.com/hphotos-xfp1/t51.2885-15/1171725_1422428248002522_1854355974_n.jpg'
p118
aS'http://scontent-a.cdninstagram.com/hphotos-xpf1/t51.2885-15/1741253_1417508585163566_191821916_n.jpg'
p119
aS'http://scontent-b.cdninstagram.com/hphotos-xfp1/t51.2885-15/1963141_1399781026949344_940546050_n.jpg'
p120
aS'http://scontent-b.cdninstagram.com/hphotos-xfa1/t51.2885-15/1742752_552471551526768_1489255627_n.jpg'
p121
aS'http://scontent-a.cdninstagram.com/hphotos-xaf1/t51.2885-15/1889280_365357923607431_1800381000_n.jpg'
p122
ag122
aS'http://scontent-b.cdninstagram.com/hphotos-xap1/t51.2885-15/1661968_265944473570333_48532256_n.jpg'
p123
aS'http://scontent-b.cdninstagram.com/hphotos-xfa1/t51.2885-15/915503_209223422609355_715337784_n.jpg'
p124
aS'http://scontent-a.cdninstagram.com/hphotos-xpf1/t51.2885-15/1963115_686793698038836_1850533372_n.jpg'
p125
ag64
aS'http://scontent-a.cdninstagram.com/hphotos-xaf1/t51.2885-15/1741194_449597098508994_1663702533_n.jpg'
p126
aS'http://scontent-b.cdninstagram.com/hphotos-xap1/t51.2885-15/1799637_552967324811183_717118619_n.jpg'
p127
aS'http://scontent-a.cdninstagram.com/hphotos-xpa1/t51.2885-15/924884_395635157247418_253908889_n.jpg'
p128
aS'http://scontent-a.cdninstagram.com/hphotos-xaf1/outbound-distilleryimage1/t0.0-17/OBPTH/0afdab4c999511e3a4e212ae29a537f1_8.jpg'
p129
aS'http://scontent-a.cdninstagram.com/hphotos-xfa1/outbound-distilleryimage8/t0.0-17/OBPTH/e3d01c14991011e3b5c00ee37c10c0b0_8.jpg'
p130
aS'http://scontent-b.cdninstagram.com/hphotos-xpf1/t51.2885-15/1799549_610539145666860_1380230650_n.jpg'
p131
aS'http://scontent-a.cdninstagram.com/hphotos-xpf1/t51.2885-15/1799835_1446600842240669_1774727405_n.jpg'
p132
aS'http://scontent-a.cdninstagram.com/hphotos-xpa1/t51.2885-15/926967_492044807572844_1529410879_n.jpg'
p133
aS'http://scontent-a.cdninstagram.com/hphotos-xpa1/t51.2885-15/1660460_420554688080637_263753414_n.jpg'
p134
aS'http://scontent-b.cdninstagram.com/hphotos-xap1/t51.2885-15/1515093_657122847658344_2003911293_n.jpg'
p135
aS'http://scontent-a.cdninstagram.com/hphotos-xpa1/t51.2885-15/1799708_401243926686720_1215821241_n.jpg'
p136
aS'http://scontent-a.cdninstagram.com/hphotos-xfa1/t51.2885-15/1889394_1394519980811217_164916635_n.jpg'
p137
aS'http://scontent-b.cdninstagram.com/hphotos-xpa1/t51.2885-15/1660736_203419343200644_1367584852_n.jpg'
p138
aS'http://scontent-a.cdninstagram.com/hphotos-xpf1/t51.2885-15/1661585_274830479342680_1111079580_n.jpg'
p139
aS'http://scontent-a.cdninstagram.com/hphotos-xfa1/t51.2885-15/1922278_252049301632962_1269882228_n.jpg'
p140
aS'http://scontent-a.cdninstagram.com/hphotos-xap1/t51.2885-15/1690257_296300960516972_1421299480_n.jpg'
p141
aS'http://scontent-a.cdninstagram.com/hphotos-xpf1/t51.2885-15/1799777_524742210974127_774044868_n.jpg'
p142
aS'http://scontent-a.cdninstagram.com/hphotos-xfp1/t51.2885-15/1740333_702331686474299_1351069217_n.jpg'
p143
aS'http://scontent-a.cdninstagram.com/hphotos-xfa1/t51.2885-15/914618_586809671409952_84203322_n.jpg'
p144
aS'http://scontent-a.cdninstagram.com/hphotos-xpf1/t51.2885-15/1799835_1461187574095660_1816142173_n.jpg'
p145
aS'http://scontent-b.cdninstagram.com/hphotos-xpf1/t51.2885-15/1889155_599605810120849_1992438308_n.jpg'
p146
aS'http://scontent-b.cdninstagram.com/hphotos-xap1/t51.2885-15/1740993_581578481936882_1810146539_n.jpg'
p147
aS'http://scontent-b.cdninstagram.com/hphotos-xpa1/t51.2885-15/1742288_575608605857900_1985419585_n.jpg'
p148
aS'http://scontent-a.cdninstagram.com/hphotos-xpf1/t51.2885-15/1742345_473666762734392_1804661877_n.jpg'
p149
aS'http://scontent-b.cdninstagram.com/hphotos-xpa1/t51.2885-15/1597459_490863404357624_349514140_n.jpg'
p150
aS'http://scontent-b.cdninstagram.com/hphotos-xfa1/t51.2885-15/916994_660991413939410_79943451_n.jpg'
p151
asS'urlList'
p152
(lp153
S'http://scontent-b.cdninstagram.com/hphotos-xap1/t51.2885-15/10546803_145705452266541_175630447_n.jpg'
p154
aS'http://scontent-b.cdninstagram.com/hphotos-xfa1/t51.2885-15/10549900_1472164026355320_1588540855_n.jpg'
p155
aS'http://scontent-b.cdninstagram.com/hphotos-xpf1/t51.2885-15/10467760_880650065282931_1025280287_n.jpg'
p156
aS'http://scontent-a.cdninstagram.com/hphotos-xfp1/t51.2885-15/10467826_653621938057419_428151634_n.jpg'
p157
aS'http://scontent-a.cdninstagram.com/hphotos-xaf1/t51.2885-15/914739_1471557479756384_966935655_n.jpg'
p158
aS'http://scontent-b.cdninstagram.com/hphotos-xaf1/t51.2885-15/10251282_520722801389353_597738120_n.jpg'
p159
aS'http://scontent-a.cdninstagram.com/hphotos-xfa1/t51.2885-15/915562_426575350817579_347952526_n.jpg'
p160
aS'http://scontent-b.cdninstagram.com/hphotos-xfp1/t51.2885-15/10474926_250827311791137_334787807_n.jpg'
p161
aS'http://scontent-b.cdninstagram.com/hphotos-xpa1/t51.2885-15/10467872_803206819691613_711350831_n.jpg'
p162
aS'http://scontent-b.cdninstagram.com/hphotos-xfp1/t51.2885-15/10412851_589264937837484_1880056428_n.jpg'
p163
aS'http://scontent-a.cdninstagram.com/hphotos-xpa1/t51.2885-15/10454200_1499516080267118_578036799_n.jpg'
p164
aS'http://scontent-b.cdninstagram.com/hphotos-xpf1/t51.2885-15/10358335_1517449361812462_403553807_n.jpg'
p165
aS'http://scontent-a.cdninstagram.com/hphotos-xfp1/t51.2885-15/10413891_593469230752243_525916439_n.jpg'
p166
aS'http://scontent-b.cdninstagram.com/hphotos-xpf1/t51.2885-15/10375829_865949413420912_967265302_n.jpg'
p167
aS'http://scontent-a.cdninstagram.com/hphotos-xap1/t51.2885-15/10369524_471705039629087_2031914448_n.jpg'
p168
aS'http://scontent-b.cdninstagram.com/hphotos-xfp1/t51.2885-15/10362246_388459921292243_1274335519_n.jpg'
p169
aS'http://scontent-a.cdninstagram.com/hphotos-xap1/t51.2885-15/10358390_715630068475561_1772627521_n.jpg'
p170
aS'http://scontent-a.cdninstagram.com/hphotos-xap1/t51.2885-15/926478_631039186978321_668355757_n.jpg'
p171
aS'http://scontent-b.cdninstagram.com/hphotos-xap1/t51.2885-15/10254291_1596854787207133_757028815_n.jpg'
p172
aS'http://scontent-a.cdninstagram.com/hphotos-xpa1/t51.2885-15/10296998_509412985855552_1819239235_n.jpg'
p173
aS'http://scontent-b.cdninstagram.com/hphotos-xpf1/t51.2885-15/10311333_616401455108604_1966799966_n.jpg'
p174
aS'http://scontent-a.cdninstagram.com/hphotos-xap1/t51.2885-15/10251525_1470660699831996_869359910_n.jpg'
p175
aS'http://scontent-a.cdninstagram.com/hphotos-xap1/t51.2885-15/10299624_730418180336066_1197400138_n.jpg'
p176
aS'http://scontent-a.cdninstagram.com/hphotos-xpf1/t51.2885-15/10246112_1390976467852009_1596278046_n.jpg'
p177
aS'http://scontent-a.cdninstagram.com/hphotos-xap1/t51.2885-15/10261209_281368485372309_481020141_n.jpg'
p178
aS'http://scontent-b.cdninstagram.com/hphotos-xfp1/t51.2885-15/10296862_273400259504892_1999460197_n.jpg'
p179
aS'http://scontent-a.cdninstagram.com/hphotos-xap1/t51.2885-15/926727_648224751899456_1946065714_n.jpg'
p180
aS'http://scontent-a.cdninstagram.com/hphotos-xfp1/t51.2885-15/10299621_1426989437557582_1365371945_n.jpg'
p181
aS'http://scontent-a.cdninstagram.com/hphotos-xfa1/t51.2885-15/10251316_300329186789391_1155588354_n.jpg'
p182
aS'http://scontent-b.cdninstagram.com/hphotos-xpa1/t51.2885-15/924965_743436145678713_844610914_n.jpg'
p183
aS'http://scontent-a.cdninstagram.com/hphotos-xap1/t51.2885-15/10246161_741741392514155_36268419_n.jpg'
p184
aS'http://scontent-b.cdninstagram.com/hphotos-xpf1/t51.2885-15/10299904_1427198084196924_1334393619_n.jpg'
p185
aS'http://scontent-a.cdninstagram.com/hphotos-xfa1/t51.2885-15/917057_264423147070423_2039428467_n.jpg'
p186
aS'http://scontent-a.cdninstagram.com/hphotos-xaf1/t51.2885-15/10251480_1376650085952984_1127136977_n.jpg'
p187
aS'http://scontent-b.cdninstagram.com/hphotos-xpf1/t51.2885-15/10268804_1470504806513694_963638181_n.jpg'
p188
aS'http://scontent-a.cdninstagram.com/hphotos-xpf1/t51.2885-15/10005287_1424780794438652_1870828677_n.jpg'
p189
aS'http://scontent-b.cdninstagram.com/hphotos-xfp1/t51.2885-15/10246191_473407536092180_746672227_n.jpg'
p190
aS'http://scontent-b.cdninstagram.com/hphotos-xfp1/t51.2885-15/1527567_692929450765825_978703272_n.jpg'
p191
aS'http://scontent-a.cdninstagram.com/hphotos-xpf1/t51.2885-15/1515715_240156396175815_162679828_n.jpg'
p192
aS'http://scontent-a.cdninstagram.com/hphotos-xap1/t51.2885-15/1172134_733405676691470_662791842_n.jpg'
p193
aS'http://scontent-a.cdninstagram.com/hphotos-xpf1/t51.2885-15/10249163_282951288547436_1966070581_n.jpg'
p194
aS'http://scontent-a.cdninstagram.com/hphotos-xpa1/t51.2885-15/1922162_476970545736941_1015793318_n.jpg'
p195
aS'http://scontent-a.cdninstagram.com/hphotos-xpa1/l/t51.2885-15/10245962_1468111893421005_1626553808_n.jpg'
p196
aS'http://scontent-b.cdninstagram.com/hphotos-xaf1/t51.2885-15/1209505_228833180641157_1039926953_n.jpg'
p197
aS'http://scontent-a.cdninstagram.com/hphotos-xfa1/t51.2885-15/914677_297262230430820_1964626078_n.jpg'
p198
aS'http://scontent-b.cdninstagram.com/hphotos-xaf1/l/t51.2885-15/10251270_613168518777589_1293463641_n.jpg'
p199
aS'http://scontent-a.cdninstagram.com/hphotos-xfa1/t51.2885-15/10245958_399210970220403_988110154_n.jpg'
p200
aS'http://scontent-b.cdninstagram.com/hphotos-xpa1/t51.2885-15/929303_243320232537213_1403574375_n.jpg'
p201
aS'http://scontent-a.cdninstagram.com/hphotos-xpf1/t51.2885-15/10013309_258234891022966_498310015_n.jpg'
p202
aS'http://scontent-b.cdninstagram.com/hphotos-xfp1/t51.2885-15/1527651_756205581080151_324958730_n.jpg'
p203
aS'http://scontent-b.cdninstagram.com/hphotos-xfa1/t51.2885-15/10246204_843247052359337_1135954050_n.jpg'
p204
aS'http://scontent-b.cdninstagram.com/hphotos-xpa1/t51.2885-15/10245908_615746021843357_1142441219_n.jpg'
p205
aS'http://scontent-a.cdninstagram.com/hphotos-xpf1/t51.2885-15/10005379_603279346427012_198858974_n.jpg'
p206
aS'http://scontent-b.cdninstagram.com/hphotos-xap1/t51.2885-15/1172134_667114296659492_820446606_n.jpg'
p207
aS'http://scontent-b.cdninstagram.com/hphotos-xpa1/t51.2885-15/1171985_696474047065175_1426569690_n.jpg'
p208
aS'http://scontent-a.cdninstagram.com/hphotos-xap1/t51.2885-15/928488_1437701846475711_1942646738_n.jpg'
p209
aS'http://scontent-a.cdninstagram.com/hphotos-xap1/t51.2885-15/10004277_1575609145996587_1510166250_n.jpg'
p210
aS'http://scontent-a.cdninstagram.com/hphotos-xpa1/t51.2885-15/10246172_842299959120673_1481388527_n.jpg'
p211
aS'http://scontent-b.cdninstagram.com/hphotos-xpa1/t51.2885-15/10012427_478035165631020_888411295_n.jpg'
p212
aS'http://scontent-a.cdninstagram.com/hphotos-xfa1/t51.2885-15/10175200_839778462705721_480438726_n.jpg'
p213
aS'http://scontent-a.cdninstagram.com/hphotos-xfa1/t51.2885-15/10005340_557792637652013_327812016_n.jpg'
p214
aS'http://scontent-a.cdninstagram.com/hphotos-xpf1/t51.2885-15/10013084_450850708380455_1429741288_n.jpg'
p215
aS'http://scontent-b.cdninstagram.com/hphotos-xpa1/t51.2885-15/929279_718640968187320_241171155_n.jpg'
p216
aS'http://scontent-a.cdninstagram.com/hphotos-xpf1/t51.2885-15/10004265_1463370887228868_194663851_n.jpg'
p217
aS'http://scontent-a.cdninstagram.com/hphotos-xaf1/t51.2885-15/10175157_1419767328278751_899754448_n.jpg'
p218
aS'http://scontent-b.cdninstagram.com/hphotos-xpa1/t51.2885-15/1170533_1411213715805948_281452230_n.jpg'
p219
aS'http://scontent-a.cdninstagram.com/hphotos-xpa1/t51.2885-15/1170182_298908680265745_506924097_n.jpg'
p220
aS'http://scontent-b.cdninstagram.com/hphotos-xfa1/t51.2885-15/1171619_539785252803616_1804953521_n.jpg'
p221
aS'http://scontent-a.cdninstagram.com/hphotos-xpf1/t51.2885-15/1389007_565012986930746_2073318907_n.jpg'
p222
aS'http://scontent-a.cdninstagram.com/hphotos-xpa1/t51.2885-15/1515744_494739313982386_345469967_n.jpg'
p223
aS'http://scontent-a.cdninstagram.com/hphotos-xpf1/t51.2885-15/1516778_647050272028667_925523305_n.jpg'
p224
aS'http://scontent-a.cdninstagram.com/hphotos-xap1/t51.2885-15/929296_756947727648976_392080451_n.jpg'
p225
aS'http://scontent-b.cdninstagram.com/hphotos-xpa1/t51.2885-15/1170356_599847260105187_2023903378_n.jpg'
p226
aS'http://scontent-a.cdninstagram.com/hphotos-xpa1/t51.2885-15/1530825_744974715526065_403865742_n.jpg'
p227
aS'http://scontent-a.cdninstagram.com/hphotos-xpa1/t51.2885-15/10012460_726600674046140_2051440780_n.jpg'
p228
aS'http://scontent-a.cdninstagram.com/hphotos-xap1/t51.2885-15/1170432_858293320864253_2016310529_n.jpg'
p229
aS'http://scontent-b.cdninstagram.com/hphotos-xpf1/t51.2885-15/1515727_224607271069629_1594972417_n.jpg'
p230
aS'http://scontent-b.cdninstagram.com/hphotos-xpa1/t51.2885-15/927194_1464424127122137_1955125439_n.jpg'
p231
aS'http://scontent-b.cdninstagram.com/hphotos-xfa1/t51.2885-15/10013302_607974589288863_1094144462_n.jpg'
p232
aS'http://scontent-a.cdninstagram.com/hphotos-xap1/t51.2885-15/1172185_274585392709249_551423713_n.jpg'
p233
aS'http://scontent-b.cdninstagram.com/hphotos-xap1/t51.2885-15/1963078_443509552449882_1513627508_n.jpg'
p234
aS'http://scontent-b.cdninstagram.com/hphotos-xap1/outbound-distilleryimage7/t0.0-17/OBPTH/70e5b1e0b4a011e3be7a1240bc19271b_8.jpg'
p235
aS'http://scontent-a.cdninstagram.com/hphotos-xfa1/outbound-distilleryimage3/t0.0-17/OBPTH/5a1c52eeb49011e381ee0e1a2586fc7b_8.jpg'
p236
aS'http://scontent-a.cdninstagram.com/hphotos-xpa1/outbound-distilleryimage10/t0.0-17/OBPTH/0d6fa068b49011e3bf200a16a556a2d2_8.jpg'
p237
aS'http://scontent-a.cdninstagram.com/hphotos-xpa1/outbound-distilleryimage6/t0.0-17/OBPTH/5734e9fcb31311e3802d129a759eac32_8.jpg'
p238
aS'http://scontent-b.cdninstagram.com/hphotos-xfp1/outbound-distilleryimage11/t0.0-17/OBPTH/68d46c6eb2fa11e3b0681227bc1b071f_8.jpg'
p239
aS'http://scontent-a.cdninstagram.com/hphotos-xfa1/outbound-distilleryimage11/t0.0-17/OBPTH/d92d94f0b2e011e38ae512bc234f61c7_8.jpg'
p240
aS'http://scontent-a.cdninstagram.com/hphotos-xaf1/outbound-distilleryimage10/t0.0-17/OBPTH/7c2167b2b2c911e3b4f212fe7764450a_8.jpg'
p241
aS'http://scontent-b.cdninstagram.com/hphotos-xap1/outbound-distilleryimage4/t0.0-17/OBPTH/5edd78aab25411e3855c120ccc3aa4f0_8.jpg'
p242
aS'http://scontent-b.cdninstagram.com/hphotos-xap1/outbound-distilleryimage5/t0.0-17/OBPTH/4c276c7cb24311e399761229147967f5_8.jpg'
p243
aS'http://scontent-a.cdninstagram.com/hphotos-xfa1/outbound-distilleryimage11/t0.0-17/OBPTH/8853ccdab21711e3977912351092712f_8.jpg'
p244
aS'http://scontent-a.cdninstagram.com/hphotos-xfa1/outbound-distilleryimage5/t0.0-17/OBPTH/c53d101ab20e11e395e70e737a883845_8.jpg'
p245
aS'http://scontent-a.cdninstagram.com/hphotos-xfa1/outbound-distilleryimage5/t0.0-17/OBPTH/50e92832b19811e3b22c1241d1e00121_8.jpg'
p246
aS'http://scontent-b.cdninstagram.com/hphotos-xfp1/outbound-distilleryimage2/t0.0-17/OBPTH/71ecabc8b18c11e39e350ecbac9c2ada_8.jpg'
p247
aS'http://scontent-b.cdninstagram.com/hphotos-xfp1/outbound-distilleryimage0/t0.0-17/OBPTH/1f55881eb18011e39a0b0a985b09a160_8.jpg'
p248
aS'http://scontent-b.cdninstagram.com/hphotos-xpf1/outbound-distilleryimage10/t0.0-17/OBPTH/7147e38eb17f11e3b93a12b9947ace8a_8.jpg'
p249
aS'http://scontent-b.cdninstagram.com/hphotos-xpf1/outbound-distilleryimage1/t0.0-17/OBPTH/1030e5b4b17a11e3a3361272a5390f85_8.jpg'
p250
aS'http://scontent-b.cdninstagram.com/hphotos-xfp1/outbound-distilleryimage11/t0.0-17/OBPTH/97ac4992b17611e396db121ccdcfffa7_8.jpg'
p251
aS'http://scontent-a.cdninstagram.com/hphotos-xpa1/outbound-distilleryimage11/t0.0-17/OBPTH/c8accfc2b17511e38cc01239dde3833f_8.jpg'
p252
aS'http://scontent-b.cdninstagram.com/hphotos-xfp1/outbound-distilleryimage11/t0.0-17/OBPTH/a792ad42b16711e3842312b392e636d3_8.jpg'
p253
aS'http://scontent-b.cdninstagram.com/hphotos-xap1/outbound-distilleryimage3/t0.0-17/OBPTH/aa8b3c3cb16511e3b15212d3e12d7b7f_8.jpg'
p254
aS'http://scontent-a.cdninstagram.com/hphotos-xfa1/outbound-distilleryimage3/t0.0-17/OBPTH/a889ab50b16311e3bf4f12fbebc77d7f_8.jpg'
p255
aS'http://scontent-a.cdninstagram.com/hphotos-xaf1/outbound-distilleryimage0/t0.0-17/OBPTH/32b93784b14e11e3aeea0ebeb7807078_8.jpg'
p256
aS'http://scontent-a.cdninstagram.com/hphotos-xpa1/outbound-distilleryimage7/t0.0-17/OBPTH/11a9818eb14e11e38ac81268ca8cfe2f_8.jpg'
p257
aS'http://scontent-a.cdninstagram.com/hphotos-xaf1/outbound-distilleryimage4/t0.0-17/OBPTH/bc6bb830b14411e38c5c12190666a89c_8.jpg'
p258
aS'http://scontent-b.cdninstagram.com/hphotos-xpf1/outbound-distilleryimage0/t0.0-17/OBPTH/e1ff0a72b0ac11e3a57712341c54b808_8.jpg'
p259
aS'http://scontent-b.cdninstagram.com/hphotos-xap1/outbound-distilleryimage5/t0.0-17/OBPTH/f774fce6b0a611e3825412348fd912d5_8.jpg'
p260
aS'http://scontent-b.cdninstagram.com/hphotos-xpf1/outbound-distilleryimage5/t0.0-17/OBPTH/bcee837cb0a511e3a1cd0a6ea6ffa675_8.jpg'
p261
aS'http://scontent-b.cdninstagram.com/hphotos-xfp1/outbound-distilleryimage6/t0.0-17/OBPTH/85e4e916b09b11e39227127b15a688ce_8.jpg'
p262
aS'http://scontent-a.cdninstagram.com/hphotos-xaf1/outbound-distilleryimage6/t0.0-17/OBPTH/5c07f798b09411e3b7ed12d69d74e3c2_8.jpg'
p263
aS'http://scontent-b.cdninstagram.com/hphotos-xfp1/outbound-distilleryimage7/t0.0-17/OBPTH/c41be258b09011e3975a0e30d8b9f9cb_8.jpg'
p264
aS'http://scontent-b.cdninstagram.com/hphotos-xpf1/outbound-distilleryimage11/t0.0-17/OBPTH/45c13fe2afe711e3bb561286f3f88ddb_8.jpg'
p265
aS'http://scontent-a.cdninstagram.com/hphotos-xfa1/outbound-distilleryimage2/t0.0-17/OBPTH/6ada13faafe011e3a7dc1272c310b776_8.jpg'
p266
aS'http://scontent-a.cdninstagram.com/hphotos-xpa1/outbound-distilleryimage7/t0.0-17/OBPTH/adbbd28aaf9f11e3afd412094635aacf_8.jpg'
p267
aS'http://scontent-a.cdninstagram.com/hphotos-xpa1/outbound-distilleryimage1/t0.0-17/OBPTH/75f775a2af1811e3a2fd12a48db3bd35_8.jpg'
p268
aS'http://scontent-b.cdninstagram.com/hphotos-xap1/outbound-distilleryimage11/t0.0-17/OBPTH/d6048528af1511e3a43b12afe341ab2f_8.jpg'
p269
aS'http://scontent-b.cdninstagram.com/hphotos-xap1/outbound-distilleryimage2/t0.0-17/OBPTH/501db0f6af1011e3aaa512c02bac1b2e_8.jpg'
p270
aS'http://scontent-a.cdninstagram.com/hphotos-xfa1/outbound-distilleryimage4/t0.0-17/OBPTH/81eddac4aef811e3b074122699d3b940_8.jpg'
p271
aS'http://scontent-a.cdninstagram.com/hphotos-xpa1/outbound-distilleryimage5/t0.0-17/OBPTH/c92e5266aef711e3bd5b12f05023f629_8.jpg'
p272
aS'http://scontent-a.cdninstagram.com/hphotos-xaf1/outbound-distilleryimage2/t0.0-17/OBPTH/75a56756aef711e38214125ca684f7c2_8.jpg'
p273
aS'http://scontent-b.cdninstagram.com/hphotos-xap1/outbound-distilleryimage6/t0.0-17/OBPTH/81564d9cada111e3874612e79814bf9e_8.jpg'
p274
aS'http://scontent-a.cdninstagram.com/hphotos-xaf1/outbound-distilleryimage8/t0.0-17/OBPTH/b3952ce8ada011e39b8f0ebc2702080c_8.jpg'
p275
aS'http://scontent-a.cdninstagram.com/hphotos-xpa1/outbound-distilleryimage0/t0.0-17/OBPTH/b39b1f86ad8711e3a74212fe6b8d01d0_8.jpg'
p276
aS'http://scontent-b.cdninstagram.com/hphotos-xap1/outbound-distilleryimage6/t0.0-17/OBPTH/288d0cb2ad8511e3aea30e0a45d706d2_8.jpg'
p277
aS'http://scontent-a.cdninstagram.com/hphotos-xpa1/outbound-distilleryimage3/t0.0-17/OBPTH/cb9831d6ad8311e3975a0e30d8b9f9cb_8.jpg'
p278
aS'http://scontent-a.cdninstagram.com/hphotos-xfa1/outbound-distilleryimage0/t0.0-17/OBPTH/c865f9e8ad7f11e3aa29122d9684fa1c_8.jpg'
p279
aS'http://scontent-b.cdninstagram.com/hphotos-xap1/outbound-distilleryimage5/t0.0-17/OBPTH/4665ea06ad6711e3802612986f7fd881_8.jpg'
p280
aS'http://scontent-b.cdninstagram.com/hphotos-xfp1/outbound-distilleryimage6/t0.0-17/OBPTH/e611a6faad4711e3a84b12ec4dc1b49e_8.jpg'
p281
aS'http://scontent-b.cdninstagram.com/hphotos-xpf1/outbound-distilleryimage11/t0.0-17/OBPTH/b757df92ad4611e3934d1294553a9b9f_8.jpg'
p282
aS'http://scontent-a.cdninstagram.com/hphotos-xfa1/outbound-distilleryimage9/t0.0-17/OBPTH/05af9e58ad4411e38fad1290e8e859c5_8.jpg'
p283
aS'http://scontent-b.cdninstagram.com/hphotos-xfp1/outbound-distilleryimage10/t0.0-17/OBPTH/e899bea8ad4211e3b6530e9cd22cd9e6_7.jpg'
p284
aS'http://scontent-a.cdninstagram.com/hphotos-xfa1/outbound-distilleryimage1/t0.0-17/OBPTH/5f451c6aad4211e3b74b1270dd981a11_8.jpg'
p285
aS'http://scontent-a.cdninstagram.com/hphotos-xaf1/outbound-distilleryimage2/t0.0-17/OBPTH/4dea4f72ad4111e385151259693d2e2e_8.jpg'
p286
aS'http://scontent-a.cdninstagram.com/hphotos-xpa1/outbound-distilleryimage4/t0.0-17/OBPTH/39cdbd4ead3c11e388c2122b5091b684_8.jpg'
p287
aS'http://scontent-b.cdninstagram.com/hphotos-xap1/outbound-distilleryimage7/t0.0-17/OBPTH/f77b0c90ad3a11e3a98f123cdd6bb467_8.jpg'
p288
aS'http://scontent-b.cdninstagram.com/hphotos-xap1/outbound-distilleryimage8/t0.0-17/OBPTH/76507328acd411e399d21240d8b957ec_8.jpg'
p289
aS'http://scontent-b.cdninstagram.com/hphotos-xap1/outbound-distilleryimage11/t0.0-17/OBPTH/66ebe97aac9e11e3a4e812facb70fe0b_8.jpg'
p290
aS'http://scontent-a.cdninstagram.com/hphotos-xaf1/outbound-distilleryimage1/t0.0-17/OBPTH/eefe094cac8f11e38ab512ca5bee9511_8.jpg'
p291
aS'http://scontent-b.cdninstagram.com/hphotos-xap1/outbound-distilleryimage2/t0.0-17/OBPTH/bc89b054ac8c11e3bcfa12cc544f00ea_8.jpg'
p292
aS'http://scontent-a.cdninstagram.com/hphotos-xpa1/outbound-distilleryimage7/t0.0-17/OBPTH/0d4bf8d2ac8611e3ad3612afbe59bd1b_8.jpg'
p293
aS'http://scontent-a.cdninstagram.com/hphotos-xpa1/outbound-distilleryimage2/t0.0-17/OBPTH/5e348a3eac8611e382dd0e6498de14aa_8.jpg'
p294
aS'http://scontent-a.cdninstagram.com/hphotos-xaf1/outbound-distilleryimage5/t0.0-17/OBPTH/f7301e4eac7f11e3b24a12b22605d8d1_8.jpg'
p295
aS'http://scontent-a.cdninstagram.com/hphotos-xfa1/outbound-distilleryimage6/t0.0-17/OBPTH/e60dc040ac7411e3babd1241ef079fb6_8.jpg'
p296
aS'http://scontent-a.cdninstagram.com/hphotos-xfa1/outbound-distilleryimage8/t0.0-17/OBPTH/f04dab1eac7011e3bf9312c70e4ebd7c_8.jpg'
p297
aS'http://scontent-a.cdninstagram.com/hphotos-xpa1/outbound-distilleryimage10/t0.0-17/OBPTH/1e88af60ac0d11e3886712ac01958366_8.jpg'
p298
aS'http://scontent-a.cdninstagram.com/hphotos-xfa1/outbound-distilleryimage10/t0.0-17/OBPTH/407a633eabfe11e39f5f120fbfbae7d6_8.jpg'
p299
aS'http://scontent-b.cdninstagram.com/hphotos-xpf1/outbound-distilleryimage7/t0.0-17/OBPTH/27ae21daabf711e3a1431207f0d7228f_8.jpg'
p300
aS'http://scontent-b.cdninstagram.com/hphotos-xap1/outbound-distilleryimage5/t0.0-17/OBPTH/08c01ae8abb211e3a4f412584b9218a9_8.jpg'
p301
aS'http://scontent-b.cdninstagram.com/hphotos-xfp1/outbound-distilleryimage5/t0.0-17/OBPTH/d50ab974abb111e3ae51126993c4de79_8.jpg'
p302
aS'http://scontent-a.cdninstagram.com/hphotos-xfa1/outbound-distilleryimage0/t0.0-17/OBPTH/9b21d37aabaa11e391f71261a0fce088_8.jpg'
p303
aS'http://scontent-b.cdninstagram.com/hphotos-xpf1/outbound-distilleryimage1/t0.0-17/OBPTH/d836ba3cab3711e3b9b40e9c7b1acf11_8.jpg'
p304
aS'http://scontent-a.cdninstagram.com/hphotos-xaf1/outbound-distilleryimage10/t0.0-17/OBPTH/a7e9c50cab2a11e3b9f31293dcb0414a_8.jpg'
p305
aS'http://scontent-a.cdninstagram.com/hphotos-xfa1/outbound-distilleryimage11/t0.0-17/OBPTH/af1bdbaeab2411e3bc5912294d621823_8.jpg'
p306
aS'http://scontent-b.cdninstagram.com/hphotos-xpf1/outbound-distilleryimage11/t0.0-17/OBPTH/bd3796baab1a11e396ce12408677aaaf_8.jpg'
p307
aS'http://scontent-a.cdninstagram.com/hphotos-xfa1/outbound-distilleryimage11/t0.0-17/OBPTH/753a1cb8aaf511e3919d125d2b9382bf_8.jpg'
p308
aS'http://scontent-a.cdninstagram.com/hphotos-xfa1/outbound-distilleryimage10/t0.0-17/OBPTH/5bcbe542aaf311e38f5f1279cee7a9e2_8.jpg'
p309
aS'http://scontent-b.cdninstagram.com/hphotos-xap1/outbound-distilleryimage11/l/t0.0-17/OBPTH/e897110aaa7011e385810e7a2a0d218f_8.jpg'
p310
aS'http://scontent-b.cdninstagram.com/hphotos-xap1/outbound-distilleryimage6/t0.0-17/OBPTH/bb85ffc0aa6e11e3a99f0e0d44d6167e_8.jpg'
p311
aS'http://scontent-b.cdninstagram.com/hphotos-xpf1/outbound-distilleryimage10/t0.0-17/OBPTH/d16222acaa5e11e3ac8b12812f0cc8a2_8.jpg'
p312
aS'http://scontent-b.cdninstagram.com/hphotos-xfp1/outbound-distilleryimage3/t0.0-17/OBPTH/6b8e7422aa5311e3a6c81248b07140bf_8.jpg'
p313
ag79
ag80
ag81
ag53
ag6
ag82
ag83
ag7
ag54
ag8
ag9
ag10
ag84
ag11
ag85
ag12
ag86
ag55
ag13
ag87
ag88
ag56
ag89
ag90
ag91
ag14
ag57
ag92
ag93
ag94
ag95
ag58
ag59
ag60
ag96
ag97
ag15
ag98
ag99
ag16
ag100
ag101
ag102
ag17
ag103
ag104
ag61
ag18
ag19
ag20
ag105
ag106
ag62
ag21
ag107
ag22
ag108
ag109
ag23
ag110
ag111
ag112
ag63
ag24
ag113
ag114
ag115
ag116
ag117
ag118
ag119
ag120
ag121
ag122
ag123
ag124
ag125
ag25
ag64
ag126
ag127
ag128
ag26
ag65
ag27
ag28
ag129
ag130
ag131
ag29
ag132
ag30
ag31
ag32
ag33
ag34
ag35
ag133
ag134
ag36
ag135
ag136
ag66
ag137
ag138
ag139
ag37
ag38
ag140
ag39
ag40
ag41
ag141
ag67
ag42
ag68
ag142
ag143
ag144
ag69
ag43
ag44
ag145
ag70
ag146
ag147
ag148
ag71
ag72
ag45
ag73
ag149
ag46
ag47
ag48
ag150
ag49
ag151
ag74
ag50
asS'Blurry'
p314
(lp315
sb.