(i__main__
Restaurant
p0
(dp1
S'NoPeople'
p2
(lp3
sS'People'
p4
(lp5
S'http://scontent-b.cdninstagram.com/hphotos-xap1/t51.2885-15/10546803_145705452266541_175630447_n.jpg'
p6
aS'http://scontent-b.cdninstagram.com/hphotos-xpf1/t51.2885-15/10467760_880650065282931_1025280287_n.jpg'
p7
aS'http://scontent-a.cdninstagram.com/hphotos-xaf1/t51.2885-15/914739_1471557479756384_966935655_n.jpg'
p8
aS'http://scontent-b.cdninstagram.com/hphotos-xaf1/t51.2885-15/10251282_520722801389353_597738120_n.jpg'
p9
aS'http://scontent-b.cdninstagram.com/hphotos-xfp1/t51.2885-15/10474926_250827311791137_334787807_n.jpg'
p10
aS'http://scontent-b.cdninstagram.com/hphotos-xpa1/t51.2885-15/10467872_803206819691613_711350831_n.jpg'
p11
aS'http://scontent-a.cdninstagram.com/hphotos-xfp1/t51.2885-15/10413891_593469230752243_525916439_n.jpg'
p12
aS'http://scontent-b.cdninstagram.com/hphotos-xfp1/t51.2885-15/10362246_388459921292243_1274335519_n.jpg'
p13
aS'http://scontent-b.cdninstagram.com/hphotos-xpf1/t51.2885-15/10311333_616401455108604_1966799966_n.jpg'
p14
aS'http://scontent-a.cdninstagram.com/hphotos-xap1/t51.2885-15/10299624_730418180336066_1197400138_n.jpg'
p15
aS'http://scontent-a.cdninstagram.com/hphotos-xap1/t51.2885-15/926727_648224751899456_1946065714_n.jpg'
p16
aS'http://scontent-a.cdninstagram.com/hphotos-xfp1/t51.2885-15/10299621_1426989437557582_1365371945_n.jpg'
p17
aS'http://scontent-b.cdninstagram.com/hphotos-xpa1/t51.2885-15/924965_743436145678713_844610914_n.jpg'
p18
aS'http://scontent-b.cdninstagram.com/hphotos-xpf1/t51.2885-15/10299904_1427198084196924_1334393619_n.jpg'
p19
aS'http://scontent-a.cdninstagram.com/hphotos-xpf1/t51.2885-15/10005287_1424780794438652_1870828677_n.jpg'
p20
aS'http://scontent-a.cdninstagram.com/hphotos-xpa1/t51.2885-15/1922162_476970545736941_1015793318_n.jpg'
p21
aS'http://scontent-b.cdninstagram.com/hphotos-xfp1/t51.2885-15/1527651_756205581080151_324958730_n.jpg'
p22
aS'http://scontent-b.cdninstagram.com/hphotos-xfa1/t51.2885-15/10246204_843247052359337_1135954050_n.jpg'
p23
aS'http://scontent-b.cdninstagram.com/hphotos-xpa1/t51.2885-15/1171985_696474047065175_1426569690_n.jpg'
p24
aS'http://scontent-a.cdninstagram.com/hphotos-xfa1/t51.2885-15/10005340_557792637652013_327812016_n.jpg'
p25
aS'http://scontent-a.cdninstagram.com/hphotos-xpf1/t51.2885-15/10013084_450850708380455_1429741288_n.jpg'
p26
aS'http://scontent-a.cdninstagram.com/hphotos-xaf1/t51.2885-15/10175157_1419767328278751_899754448_n.jpg'
p27
aS'http://scontent-a.cdninstagram.com/hphotos-xap1/t51.2885-15/1170432_858293320864253_2016310529_n.jpg'
p28
aS'http://scontent-b.cdninstagram.com/hphotos-xfa1/t51.2885-15/10013302_607974589288863_1094144462_n.jpg'
p29
aS'http://scontent-a.cdninstagram.com/hphotos-xfa1/outbound-distilleryimage3/t0.0-17/OBPTH/5a1c52eeb49011e381ee0e1a2586fc7b_8.jpg'
p30
aS'http://scontent-b.cdninstagram.com/hphotos-xap1/outbound-distilleryimage4/t0.0-17/OBPTH/5edd78aab25411e3855c120ccc3aa4f0_8.jpg'
p31
aS'http://scontent-b.cdninstagram.com/hphotos-xfp1/outbound-distilleryimage11/t0.0-17/OBPTH/a792ad42b16711e3842312b392e636d3_8.jpg'
p32
aS'http://scontent-b.cdninstagram.com/hphotos-xpf1/outbound-distilleryimage5/t0.0-17/OBPTH/bcee837cb0a511e3a1cd0a6ea6ffa675_8.jpg'
p33
aS'http://scontent-a.cdninstagram.com/hphotos-xfa1/outbound-distilleryimage2/t0.0-17/OBPTH/6ada13faafe011e3a7dc1272c310b776_8.jpg'
p34
aS'http://scontent-a.cdninstagram.com/hphotos-xfa1/outbound-distilleryimage4/t0.0-17/OBPTH/81eddac4aef811e3b074122699d3b940_8.jpg'
p35
aS'http://scontent-b.cdninstagram.com/hphotos-xap1/outbound-distilleryimage6/t0.0-17/OBPTH/288d0cb2ad8511e3aea30e0a45d706d2_8.jpg'
p36
aS'http://scontent-b.cdninstagram.com/hphotos-xap1/outbound-distilleryimage5/t0.0-17/OBPTH/4665ea06ad6711e3802612986f7fd881_8.jpg'
p37
aS'http://scontent-b.cdninstagram.com/hphotos-xfp1/outbound-distilleryimage6/t0.0-17/OBPTH/e611a6faad4711e3a84b12ec4dc1b49e_8.jpg'
p38
aS'http://scontent-a.cdninstagram.com/hphotos-xfa1/outbound-distilleryimage9/t0.0-17/OBPTH/05af9e58ad4411e38fad1290e8e859c5_8.jpg'
p39
aS'http://scontent-a.cdninstagram.com/hphotos-xfa1/outbound-distilleryimage1/t0.0-17/OBPTH/5f451c6aad4211e3b74b1270dd981a11_8.jpg'
p40
aS'http://scontent-b.cdninstagram.com/hphotos-xap1/outbound-distilleryimage11/t0.0-17/OBPTH/66ebe97aac9e11e3a4e812facb70fe0b_8.jpg'
p41
aS'http://scontent-a.cdninstagram.com/hphotos-xaf1/outbound-distilleryimage5/t0.0-17/OBPTH/f7301e4eac7f11e3b24a12b22605d8d1_8.jpg'
p42
aS'http://scontent-a.cdninstagram.com/hphotos-xfa1/outbound-distilleryimage6/t0.0-17/OBPTH/e60dc040ac7411e3babd1241ef079fb6_8.jpg'
p43
asS'Food'
p44
(lp45
S'http://scontent-a.cdninstagram.com/hphotos-xfa1/t51.2885-15/915562_426575350817579_347952526_n.jpg'
p46
aS'http://scontent-b.cdninstagram.com/hphotos-xpf1/t51.2885-15/10358335_1517449361812462_403553807_n.jpg'
p47
aS'http://scontent-b.cdninstagram.com/hphotos-xpf1/t51.2885-15/10375829_865949413420912_967265302_n.jpg'
p48
aS'http://scontent-a.cdninstagram.com/hphotos-xap1/t51.2885-15/10369524_471705039629087_2031914448_n.jpg'
p49
aS'http://scontent-a.cdninstagram.com/hphotos-xap1/t51.2885-15/926478_631039186978321_668355757_n.jpg'
p50
aS'http://scontent-b.cdninstagram.com/hphotos-xap1/t51.2885-15/10254291_1596854787207133_757028815_n.jpg'
p51
aS'http://scontent-a.cdninstagram.com/hphotos-xap1/t51.2885-15/10251525_1470660699831996_869359910_n.jpg'
p52
aS'http://scontent-b.cdninstagram.com/hphotos-xfp1/t51.2885-15/10296862_273400259504892_1999460197_n.jpg'
p53
aS'http://scontent-a.cdninstagram.com/hphotos-xaf1/t51.2885-15/10251480_1376650085952984_1127136977_n.jpg'
p54
aS'http://scontent-b.cdninstagram.com/hphotos-xfp1/t51.2885-15/1527567_692929450765825_978703272_n.jpg'
p55
aS'http://scontent-a.cdninstagram.com/hphotos-xpf1/t51.2885-15/10249163_282951288547436_1966070581_n.jpg'
p56
aS'http://scontent-a.cdninstagram.com/hphotos-xpa1/l/t51.2885-15/10245962_1468111893421005_1626553808_n.jpg'
p57
aS'http://scontent-b.cdninstagram.com/hphotos-xaf1/t51.2885-15/1209505_228833180641157_1039926953_n.jpg'
p58
aS'http://scontent-a.cdninstagram.com/hphotos-xfa1/t51.2885-15/914677_297262230430820_1964626078_n.jpg'
p59
aS'http://scontent-b.cdninstagram.com/hphotos-xpa1/t51.2885-15/929303_243320232537213_1403574375_n.jpg'
p60
aS'http://scontent-b.cdninstagram.com/hphotos-xpa1/t51.2885-15/10245908_615746021843357_1142441219_n.jpg'
p61
aS'http://scontent-b.cdninstagram.com/hphotos-xap1/t51.2885-15/1172134_667114296659492_820446606_n.jpg'
p62
aS'http://scontent-a.cdninstagram.com/hphotos-xpa1/t51.2885-15/10246172_842299959120673_1481388527_n.jpg'
p63
aS'http://scontent-a.cdninstagram.com/hphotos-xfa1/t51.2885-15/10175200_839778462705721_480438726_n.jpg'
p64
aS'http://scontent-b.cdninstagram.com/hphotos-xpa1/t51.2885-15/929279_718640968187320_241171155_n.jpg'
p65
aS'http://scontent-a.cdninstagram.com/hphotos-xpf1/t51.2885-15/10004265_1463370887228868_194663851_n.jpg'
p66
aS'http://scontent-b.cdninstagram.com/hphotos-xfa1/t51.2885-15/1171619_539785252803616_1804953521_n.jpg'
p67
aS'http://scontent-a.cdninstagram.com/hphotos-xpf1/t51.2885-15/1516778_647050272028667_925523305_n.jpg'
p68
aS'http://scontent-a.cdninstagram.com/hphotos-xpa1/t51.2885-15/10012460_726600674046140_2051440780_n.jpg'
p69
aS'http://scontent-a.cdninstagram.com/hphotos-xfa1/outbound-distilleryimage11/t0.0-17/OBPTH/d92d94f0b2e011e38ae512bc234f61c7_8.jpg'
p70
aS'http://scontent-a.cdninstagram.com/hphotos-xaf1/outbound-distilleryimage10/t0.0-17/OBPTH/7c2167b2b2c911e3b4f212fe7764450a_8.jpg'
p71
aS'http://scontent-b.cdninstagram.com/hphotos-xap1/outbound-distilleryimage5/t0.0-17/OBPTH/4c276c7cb24311e399761229147967f5_8.jpg'
p72
aS'http://scontent-b.cdninstagram.com/hphotos-xfp1/outbound-distilleryimage0/t0.0-17/OBPTH/1f55881eb18011e39a0b0a985b09a160_8.jpg'
p73
aS'http://scontent-b.cdninstagram.com/hphotos-xpf1/outbound-distilleryimage1/t0.0-17/OBPTH/1030e5b4b17a11e3a3361272a5390f85_8.jpg'
p74
aS'http://scontent-a.cdninstagram.com/hphotos-xaf1/outbound-distilleryimage0/t0.0-17/OBPTH/32b93784b14e11e3aeea0ebeb7807078_8.jpg'
p75
aS'http://scontent-a.cdninstagram.com/hphotos-xpa1/outbound-distilleryimage7/t0.0-17/OBPTH/11a9818eb14e11e38ac81268ca8cfe2f_8.jpg'
p76
aS'http://scontent-b.cdninstagram.com/hphotos-xap1/outbound-distilleryimage5/t0.0-17/OBPTH/f774fce6b0a611e3825412348fd912d5_8.jpg'
p77
aS'http://scontent-a.cdninstagram.com/hphotos-xpa1/outbound-distilleryimage7/t0.0-17/OBPTH/adbbd28aaf9f11e3afd412094635aacf_8.jpg'
p78
aS'http://scontent-a.cdninstagram.com/hphotos-xpa1/outbound-distilleryimage5/t0.0-17/OBPTH/c92e5266aef711e3bd5b12f05023f629_8.jpg'
p79
aS'http://scontent-a.cdninstagram.com/hphotos-xaf1/outbound-distilleryimage2/t0.0-17/OBPTH/75a56756aef711e38214125ca684f7c2_8.jpg'
p80
aS'http://scontent-a.cdninstagram.com/hphotos-xaf1/outbound-distilleryimage8/t0.0-17/OBPTH/b3952ce8ada011e39b8f0ebc2702080c_8.jpg'
p81
aS'http://scontent-b.cdninstagram.com/hphotos-xfp1/outbound-distilleryimage10/t0.0-17/OBPTH/e899bea8ad4211e3b6530e9cd22cd9e6_7.jpg'
p82
aS'http://scontent-b.cdninstagram.com/hphotos-xap1/outbound-distilleryimage2/t0.0-17/OBPTH/bc89b054ac8c11e3bcfa12cc544f00ea_8.jpg'
p83
aS'http://scontent-a.cdninstagram.com/hphotos-xpa1/outbound-distilleryimage2/t0.0-17/OBPTH/5e348a3eac8611e382dd0e6498de14aa_8.jpg'
p84
aS'http://scontent-b.cdninstagram.com/hphotos-xpf1/outbound-distilleryimage7/t0.0-17/OBPTH/27ae21daabf711e3a1431207f0d7228f_8.jpg'
p85
aS'http://scontent-b.cdninstagram.com/hphotos-xap1/outbound-distilleryimage5/t0.0-17/OBPTH/08c01ae8abb211e3a4f412584b9218a9_8.jpg'
p86
aS'http://scontent-b.cdninstagram.com/hphotos-xfp1/outbound-distilleryimage5/t0.0-17/OBPTH/d50ab974abb111e3ae51126993c4de79_8.jpg'
p87
aS'http://scontent-a.cdninstagram.com/hphotos-xfa1/outbound-distilleryimage0/t0.0-17/OBPTH/9b21d37aabaa11e391f71261a0fce088_8.jpg'
p88
asS'foursquareID'
p89
S'435d7580f964a5201a291fe3'
p90
sS'Reject'
p91
(lp92
S'http://scontent-b.cdninstagram.com/hphotos-xfa1/t51.2885-15/10549900_1472164026355320_1588540855_n.jpg'
p93
aS'http://scontent-a.cdninstagram.com/hphotos-xfp1/t51.2885-15/10467826_653621938057419_428151634_n.jpg'
p94
aS'http://scontent-b.cdninstagram.com/hphotos-xfp1/t51.2885-15/10412851_589264937837484_1880056428_n.jpg'
p95
aS'http://scontent-a.cdninstagram.com/hphotos-xpa1/t51.2885-15/10454200_1499516080267118_578036799_n.jpg'
p96
aS'http://scontent-a.cdninstagram.com/hphotos-xap1/t51.2885-15/10358390_715630068475561_1772627521_n.jpg'
p97
aS'http://scontent-a.cdninstagram.com/hphotos-xpa1/t51.2885-15/10296998_509412985855552_1819239235_n.jpg'
p98
aS'http://scontent-a.cdninstagram.com/hphotos-xpf1/t51.2885-15/10246112_1390976467852009_1596278046_n.jpg'
p99
aS'http://scontent-a.cdninstagram.com/hphotos-xap1/t51.2885-15/10261209_281368485372309_481020141_n.jpg'
p100
aS'http://scontent-a.cdninstagram.com/hphotos-xfa1/t51.2885-15/10251316_300329186789391_1155588354_n.jpg'
p101
aS'http://scontent-a.cdninstagram.com/hphotos-xap1/t51.2885-15/10246161_741741392514155_36268419_n.jpg'
p102
aS'http://scontent-a.cdninstagram.com/hphotos-xfa1/t51.2885-15/917057_264423147070423_2039428467_n.jpg'
p103
aS'http://scontent-b.cdninstagram.com/hphotos-xpf1/t51.2885-15/10268804_1470504806513694_963638181_n.jpg'
p104
aS'http://scontent-b.cdninstagram.com/hphotos-xfp1/t51.2885-15/10246191_473407536092180_746672227_n.jpg'
p105
aS'http://scontent-a.cdninstagram.com/hphotos-xpf1/t51.2885-15/1515715_240156396175815_162679828_n.jpg'
p106
aS'http://scontent-a.cdninstagram.com/hphotos-xap1/t51.2885-15/1172134_733405676691470_662791842_n.jpg'
p107
aS'http://scontent-b.cdninstagram.com/hphotos-xaf1/l/t51.2885-15/10251270_613168518777589_1293463641_n.jpg'
p108
aS'http://scontent-a.cdninstagram.com/hphotos-xfa1/t51.2885-15/10245958_399210970220403_988110154_n.jpg'
p109
aS'http://scontent-a.cdninstagram.com/hphotos-xpf1/t51.2885-15/10013309_258234891022966_498310015_n.jpg'
p110
aS'http://scontent-a.cdninstagram.com/hphotos-xpf1/t51.2885-15/10005379_603279346427012_198858974_n.jpg'
p111
aS'http://scontent-a.cdninstagram.com/hphotos-xap1/t51.2885-15/928488_1437701846475711_1942646738_n.jpg'
p112
aS'http://scontent-a.cdninstagram.com/hphotos-xap1/t51.2885-15/10004277_1575609145996587_1510166250_n.jpg'
p113
aS'http://scontent-b.cdninstagram.com/hphotos-xpa1/t51.2885-15/10012427_478035165631020_888411295_n.jpg'
p114
aS'http://scontent-b.cdninstagram.com/hphotos-xpa1/t51.2885-15/1170533_1411213715805948_281452230_n.jpg'
p115
aS'http://scontent-a.cdninstagram.com/hphotos-xpa1/t51.2885-15/1170182_298908680265745_506924097_n.jpg'
p116
aS'http://scontent-a.cdninstagram.com/hphotos-xpf1/t51.2885-15/1389007_565012986930746_2073318907_n.jpg'
p117
aS'http://scontent-a.cdninstagram.com/hphotos-xpa1/t51.2885-15/1515744_494739313982386_345469967_n.jpg'
p118
aS'http://scontent-a.cdninstagram.com/hphotos-xap1/t51.2885-15/929296_756947727648976_392080451_n.jpg'
p119
aS'http://scontent-b.cdninstagram.com/hphotos-xpa1/t51.2885-15/1170356_599847260105187_2023903378_n.jpg'
p120
aS'http://scontent-a.cdninstagram.com/hphotos-xpa1/t51.2885-15/1530825_744974715526065_403865742_n.jpg'
p121
aS'http://scontent-b.cdninstagram.com/hphotos-xpf1/t51.2885-15/1515727_224607271069629_1594972417_n.jpg'
p122
aS'http://scontent-b.cdninstagram.com/hphotos-xpa1/t51.2885-15/927194_1464424127122137_1955125439_n.jpg'
p123
aS'http://scontent-a.cdninstagram.com/hphotos-xap1/t51.2885-15/1172185_274585392709249_551423713_n.jpg'
p124
aS'http://scontent-b.cdninstagram.com/hphotos-xap1/t51.2885-15/1963078_443509552449882_1513627508_n.jpg'
p125
aS'http://scontent-b.cdninstagram.com/hphotos-xap1/outbound-distilleryimage7/t0.0-17/OBPTH/70e5b1e0b4a011e3be7a1240bc19271b_8.jpg'
p126
aS'http://scontent-a.cdninstagram.com/hphotos-xpa1/outbound-distilleryimage10/t0.0-17/OBPTH/0d6fa068b49011e3bf200a16a556a2d2_8.jpg'
p127
aS'http://scontent-a.cdninstagram.com/hphotos-xpa1/outbound-distilleryimage6/t0.0-17/OBPTH/5734e9fcb31311e3802d129a759eac32_8.jpg'
p128
aS'http://scontent-b.cdninstagram.com/hphotos-xfp1/outbound-distilleryimage11/t0.0-17/OBPTH/68d46c6eb2fa11e3b0681227bc1b071f_8.jpg'
p129
aS'http://scontent-a.cdninstagram.com/hphotos-xfa1/outbound-distilleryimage11/t0.0-17/OBPTH/8853ccdab21711e3977912351092712f_8.jpg'
p130
aS'http://scontent-a.cdninstagram.com/hphotos-xfa1/outbound-distilleryimage5/t0.0-17/OBPTH/c53d101ab20e11e395e70e737a883845_8.jpg'
p131
aS'http://scontent-a.cdninstagram.com/hphotos-xfa1/outbound-distilleryimage5/t0.0-17/OBPTH/50e92832b19811e3b22c1241d1e00121_8.jpg'
p132
aS'http://scontent-b.cdninstagram.com/hphotos-xfp1/outbound-distilleryimage2/t0.0-17/OBPTH/71ecabc8b18c11e39e350ecbac9c2ada_8.jpg'
p133
aS'http://scontent-b.cdninstagram.com/hphotos-xpf1/outbound-distilleryimage10/t0.0-17/OBPTH/7147e38eb17f11e3b93a12b9947ace8a_8.jpg'
p134
aS'http://scontent-b.cdninstagram.com/hphotos-xfp1/outbound-distilleryimage11/t0.0-17/OBPTH/97ac4992b17611e396db121ccdcfffa7_8.jpg'
p135
aS'http://scontent-a.cdninstagram.com/hphotos-xpa1/outbound-distilleryimage11/t0.0-17/OBPTH/c8accfc2b17511e38cc01239dde3833f_8.jpg'
p136
aS'http://scontent-b.cdninstagram.com/hphotos-xap1/outbound-distilleryimage3/t0.0-17/OBPTH/aa8b3c3cb16511e3b15212d3e12d7b7f_8.jpg'
p137
aS'http://scontent-a.cdninstagram.com/hphotos-xfa1/outbound-distilleryimage3/t0.0-17/OBPTH/a889ab50b16311e3bf4f12fbebc77d7f_8.jpg'
p138
aS'http://scontent-a.cdninstagram.com/hphotos-xaf1/outbound-distilleryimage4/t0.0-17/OBPTH/bc6bb830b14411e38c5c12190666a89c_8.jpg'
p139
aS'http://scontent-b.cdninstagram.com/hphotos-xpf1/outbound-distilleryimage0/t0.0-17/OBPTH/e1ff0a72b0ac11e3a57712341c54b808_8.jpg'
p140
aS'http://scontent-b.cdninstagram.com/hphotos-xfp1/outbound-distilleryimage6/t0.0-17/OBPTH/85e4e916b09b11e39227127b15a688ce_8.jpg'
p141
aS'http://scontent-a.cdninstagram.com/hphotos-xaf1/outbound-distilleryimage6/t0.0-17/OBPTH/5c07f798b09411e3b7ed12d69d74e3c2_8.jpg'
p142
aS'http://scontent-b.cdninstagram.com/hphotos-xfp1/outbound-distilleryimage7/t0.0-17/OBPTH/c41be258b09011e3975a0e30d8b9f9cb_8.jpg'
p143
aS'http://scontent-b.cdninstagram.com/hphotos-xpf1/outbound-distilleryimage11/t0.0-17/OBPTH/45c13fe2afe711e3bb561286f3f88ddb_8.jpg'
p144
ag34
ag78
aS'http://scontent-a.cdninstagram.com/hphotos-xpa1/outbound-distilleryimage1/t0.0-17/OBPTH/75f775a2af1811e3a2fd12a48db3bd35_8.jpg'
p145
aS'http://scontent-b.cdninstagram.com/hphotos-xap1/outbound-distilleryimage11/t0.0-17/OBPTH/d6048528af1511e3a43b12afe341ab2f_8.jpg'
p146
aS'http://scontent-b.cdninstagram.com/hphotos-xap1/outbound-distilleryimage2/t0.0-17/OBPTH/501db0f6af1011e3aaa512c02bac1b2e_8.jpg'
p147
aS'http://scontent-b.cdninstagram.com/hphotos-xap1/outbound-distilleryimage6/t0.0-17/OBPTH/81564d9cada111e3874612e79814bf9e_8.jpg'
p148
aS'http://scontent-a.cdninstagram.com/hphotos-xpa1/outbound-distilleryimage0/t0.0-17/OBPTH/b39b1f86ad8711e3a74212fe6b8d01d0_8.jpg'
p149
aS'http://scontent-a.cdninstagram.com/hphotos-xpa1/outbound-distilleryimage3/t0.0-17/OBPTH/cb9831d6ad8311e3975a0e30d8b9f9cb_8.jpg'
p150
aS'http://scontent-a.cdninstagram.com/hphotos-xfa1/outbound-distilleryimage0/t0.0-17/OBPTH/c865f9e8ad7f11e3aa29122d9684fa1c_8.jpg'
p151
aS'http://scontent-b.cdninstagram.com/hphotos-xpf1/outbound-distilleryimage11/t0.0-17/OBPTH/b757df92ad4611e3934d1294553a9b9f_8.jpg'
p152
aS'http://scontent-a.cdninstagram.com/hphotos-xaf1/outbound-distilleryimage2/t0.0-17/OBPTH/4dea4f72ad4111e385151259693d2e2e_8.jpg'
p153
aS'http://scontent-a.cdninstagram.com/hphotos-xpa1/outbound-distilleryimage4/t0.0-17/OBPTH/39cdbd4ead3c11e388c2122b5091b684_8.jpg'
p154
aS'http://scontent-b.cdninstagram.com/hphotos-xap1/outbound-distilleryimage7/t0.0-17/OBPTH/f77b0c90ad3a11e3a98f123cdd6bb467_8.jpg'
p155
aS'http://scontent-b.cdninstagram.com/hphotos-xap1/outbound-distilleryimage8/t0.0-17/OBPTH/76507328acd411e399d21240d8b957ec_8.jpg'
p156
aS'http://scontent-a.cdninstagram.com/hphotos-xaf1/outbound-distilleryimage1/t0.0-17/OBPTH/eefe094cac8f11e38ab512ca5bee9511_8.jpg'
p157
aS'http://scontent-a.cdninstagram.com/hphotos-xpa1/outbound-distilleryimage7/t0.0-17/OBPTH/0d4bf8d2ac8611e3ad3612afbe59bd1b_8.jpg'
p158
aS'http://scontent-a.cdninstagram.com/hphotos-xfa1/outbound-distilleryimage8/t0.0-17/OBPTH/f04dab1eac7011e3bf9312c70e4ebd7c_8.jpg'
p159
aS'http://scontent-a.cdninstagram.com/hphotos-xpa1/outbound-distilleryimage10/t0.0-17/OBPTH/1e88af60ac0d11e3886712ac01958366_8.jpg'
p160
aS'http://scontent-a.cdninstagram.com/hphotos-xfa1/outbound-distilleryimage10/t0.0-17/OBPTH/407a633eabfe11e39f5f120fbfbae7d6_8.jpg'
p161
asS'urlList'
p162
(lp163
g6
ag93
ag7
ag94
ag8
ag9
ag46
ag10
ag11
ag95
ag96
ag47
ag12
ag48
ag49
ag13
ag97
ag50
ag51
ag98
ag14
ag52
ag15
ag99
ag100
ag53
ag16
ag17
ag101
ag18
ag102
ag19
ag103
ag54
ag104
ag20
ag105
ag55
ag106
ag107
ag56
ag21
ag57
ag58
ag59
ag108
ag109
ag60
ag110
ag22
ag23
ag61
ag111
ag62
ag24
ag112
ag113
ag63
ag114
ag64
ag25
ag26
ag65
ag66
ag27
ag115
ag116
ag67
ag117
ag118
ag68
ag119
ag120
ag121
ag69
ag28
ag122
ag123
ag29
ag124
ag125
ag126
ag30
ag127
ag128
ag129
ag70
ag71
ag31
ag72
ag130
ag131
ag132
ag133
ag73
ag134
ag74
ag135
ag136
ag32
ag137
ag138
ag75
ag76
ag139
ag140
ag77
ag33
ag141
ag142
ag143
ag144
ag34
ag78
ag145
ag146
ag147
ag35
ag79
ag80
ag148
ag81
ag149
ag36
ag150
ag151
ag37
ag38
ag152
ag39
ag82
ag40
ag153
ag154
ag155
ag156
ag41
ag157
ag83
ag158
ag84
ag42
ag43
ag159
ag160
ag161
ag85
ag86
ag87
ag88
asS'Blurry'
p164
(lp165
sb.